ARM GAS  C:\Users\Laurent\AppData\Local\Temp\ccp6NsMF.s 			page 1


   1              		.syntax unified
   2              		.cpu cortex-m0
   3              		.fpu softvfp
   4              		.eabi_attribute 20, 1
   5              		.eabi_attribute 21, 1
   6              		.eabi_attribute 23, 3
   7              		.eabi_attribute 24, 1
   8              		.eabi_attribute 25, 1
   9              		.eabi_attribute 26, 1
  10              		.eabi_attribute 30, 6
  11              		.eabi_attribute 34, 0
  12              		.eabi_attribute 18, 4
  13              		.thumb
  14              		.syntax unified
  15              		.file	"cyfitter_cfg.c"
  16              		.text
  17              	.Ltext0:
  18              		.cfi_sections	.debug_frame
  19              		.section	.text.CYMEMZERO,"ax",%progbits
  20              		.align	2
  21              		.code	16
  22              		.thumb_func
  23              		.type	CYMEMZERO, %function
  24              	CYMEMZERO:
  25              	.LFB0:
  26              		.file 1 "Generated_Source\\PSoC4\\cyfitter_cfg.c"
   1:Generated_Source\PSoC4/cyfitter_cfg.c **** 
   2:Generated_Source\PSoC4/cyfitter_cfg.c **** /*******************************************************************************
   3:Generated_Source\PSoC4/cyfitter_cfg.c **** * File Name: cyfitter_cfg.c
   4:Generated_Source\PSoC4/cyfitter_cfg.c **** * 
   5:Generated_Source\PSoC4/cyfitter_cfg.c **** * PSoC Creator  4.4
   6:Generated_Source\PSoC4/cyfitter_cfg.c **** *
   7:Generated_Source\PSoC4/cyfitter_cfg.c **** * Description:
   8:Generated_Source\PSoC4/cyfitter_cfg.c **** * This file contains device initialization code.
   9:Generated_Source\PSoC4/cyfitter_cfg.c **** * Except for the user defined sections in CyClockStartupError(), this file should not be modified.
  10:Generated_Source\PSoC4/cyfitter_cfg.c **** * This file is automatically generated by PSoC Creator.
  11:Generated_Source\PSoC4/cyfitter_cfg.c **** *
  12:Generated_Source\PSoC4/cyfitter_cfg.c **** ********************************************************************************
  13:Generated_Source\PSoC4/cyfitter_cfg.c **** * Copyright (c) 2007-2020 Cypress Semiconductor.  All rights reserved.
  14:Generated_Source\PSoC4/cyfitter_cfg.c **** * You may use this file only in accordance with the license, terms, conditions, 
  15:Generated_Source\PSoC4/cyfitter_cfg.c **** * disclaimers, and limitations in the end user license agreement accompanying 
  16:Generated_Source\PSoC4/cyfitter_cfg.c **** * the software package with which this file was provided.
  17:Generated_Source\PSoC4/cyfitter_cfg.c **** ********************************************************************************/
  18:Generated_Source\PSoC4/cyfitter_cfg.c **** 
  19:Generated_Source\PSoC4/cyfitter_cfg.c **** #include <string.h>
  20:Generated_Source\PSoC4/cyfitter_cfg.c **** #include "cytypes.h"
  21:Generated_Source\PSoC4/cyfitter_cfg.c **** #include "cydevice_trm.h"
  22:Generated_Source\PSoC4/cyfitter_cfg.c **** #include "cyfitter.h"
  23:Generated_Source\PSoC4/cyfitter_cfg.c **** #include "CyLib.h"
  24:Generated_Source\PSoC4/cyfitter_cfg.c **** #include "CyLFClk.h"
  25:Generated_Source\PSoC4/cyfitter_cfg.c **** #include "cyfitter_cfg.h"
  26:Generated_Source\PSoC4/cyfitter_cfg.c **** #include "cyapicallbacks.h"
  27:Generated_Source\PSoC4/cyfitter_cfg.c **** 
  28:Generated_Source\PSoC4/cyfitter_cfg.c **** 
  29:Generated_Source\PSoC4/cyfitter_cfg.c **** #if defined(__GNUC__) || defined(__ARMCC_VERSION)
  30:Generated_Source\PSoC4/cyfitter_cfg.c ****     #define CYPACKED 
  31:Generated_Source\PSoC4/cyfitter_cfg.c ****     #define CYPACKED_ATTR __attribute__ ((packed))
ARM GAS  C:\Users\Laurent\AppData\Local\Temp\ccp6NsMF.s 			page 2


  32:Generated_Source\PSoC4/cyfitter_cfg.c ****     #define CYALIGNED __attribute__ ((aligned))
  33:Generated_Source\PSoC4/cyfitter_cfg.c ****     #define CY_CFG_UNUSED __attribute__ ((unused))
  34:Generated_Source\PSoC4/cyfitter_cfg.c ****     #ifndef CY_CFG_SECTION
  35:Generated_Source\PSoC4/cyfitter_cfg.c ****         #define CY_CFG_SECTION __attribute__ ((section(".psocinit")))
  36:Generated_Source\PSoC4/cyfitter_cfg.c ****     #endif
  37:Generated_Source\PSoC4/cyfitter_cfg.c ****     
  38:Generated_Source\PSoC4/cyfitter_cfg.c ****     #if defined(__ARMCC_VERSION)
  39:Generated_Source\PSoC4/cyfitter_cfg.c ****         #define CY_CFG_MEMORY_BARRIER() __memory_changed()
  40:Generated_Source\PSoC4/cyfitter_cfg.c ****     #else
  41:Generated_Source\PSoC4/cyfitter_cfg.c ****         #define CY_CFG_MEMORY_BARRIER() __sync_synchronize()
  42:Generated_Source\PSoC4/cyfitter_cfg.c ****     #endif
  43:Generated_Source\PSoC4/cyfitter_cfg.c ****     
  44:Generated_Source\PSoC4/cyfitter_cfg.c **** #elif defined(__ICCARM__)
  45:Generated_Source\PSoC4/cyfitter_cfg.c ****     #include <intrinsics.h>
  46:Generated_Source\PSoC4/cyfitter_cfg.c **** 
  47:Generated_Source\PSoC4/cyfitter_cfg.c ****     #define CYPACKED __packed
  48:Generated_Source\PSoC4/cyfitter_cfg.c ****     #define CYPACKED_ATTR 
  49:Generated_Source\PSoC4/cyfitter_cfg.c ****     #define CYALIGNED _Pragma("data_alignment=4")
  50:Generated_Source\PSoC4/cyfitter_cfg.c ****     #define CY_CFG_UNUSED _Pragma("diag_suppress=Pe177")
  51:Generated_Source\PSoC4/cyfitter_cfg.c ****     #define CY_CFG_SECTION _Pragma("location=\".psocinit\"")
  52:Generated_Source\PSoC4/cyfitter_cfg.c ****     
  53:Generated_Source\PSoC4/cyfitter_cfg.c ****     #define CY_CFG_MEMORY_BARRIER() __DMB()
  54:Generated_Source\PSoC4/cyfitter_cfg.c ****     
  55:Generated_Source\PSoC4/cyfitter_cfg.c **** #else
  56:Generated_Source\PSoC4/cyfitter_cfg.c ****     #error Unsupported toolchain
  57:Generated_Source\PSoC4/cyfitter_cfg.c **** #endif
  58:Generated_Source\PSoC4/cyfitter_cfg.c **** 
  59:Generated_Source\PSoC4/cyfitter_cfg.c **** #ifndef CYCODE
  60:Generated_Source\PSoC4/cyfitter_cfg.c ****     #define CYCODE
  61:Generated_Source\PSoC4/cyfitter_cfg.c **** #endif
  62:Generated_Source\PSoC4/cyfitter_cfg.c **** #ifndef CYDATA
  63:Generated_Source\PSoC4/cyfitter_cfg.c ****     #define CYDATA
  64:Generated_Source\PSoC4/cyfitter_cfg.c **** #endif
  65:Generated_Source\PSoC4/cyfitter_cfg.c **** #ifndef CYFAR
  66:Generated_Source\PSoC4/cyfitter_cfg.c ****     #define CYFAR
  67:Generated_Source\PSoC4/cyfitter_cfg.c **** #endif
  68:Generated_Source\PSoC4/cyfitter_cfg.c **** #ifndef CYXDATA
  69:Generated_Source\PSoC4/cyfitter_cfg.c ****     #define CYXDATA
  70:Generated_Source\PSoC4/cyfitter_cfg.c **** #endif
  71:Generated_Source\PSoC4/cyfitter_cfg.c **** 
  72:Generated_Source\PSoC4/cyfitter_cfg.c **** 
  73:Generated_Source\PSoC4/cyfitter_cfg.c **** CY_CFG_UNUSED
  74:Generated_Source\PSoC4/cyfitter_cfg.c **** static void CYMEMZERO(void *s, size_t n);
  75:Generated_Source\PSoC4/cyfitter_cfg.c **** CY_CFG_UNUSED
  76:Generated_Source\PSoC4/cyfitter_cfg.c **** static void CYMEMZERO(void *s, size_t n)
  77:Generated_Source\PSoC4/cyfitter_cfg.c **** {
  27              		.loc 1 77 0
  28              		.cfi_startproc
  29              		@ args = 0, pretend = 0, frame = 8
  30              		@ frame_needed = 1, uses_anonymous_args = 0
  31 0000 80B5     		push	{r7, lr}
  32              		.cfi_def_cfa_offset 8
  33              		.cfi_offset 7, -8
  34              		.cfi_offset 14, -4
  35 0002 82B0     		sub	sp, sp, #8
  36              		.cfi_def_cfa_offset 16
  37 0004 00AF     		add	r7, sp, #0
ARM GAS  C:\Users\Laurent\AppData\Local\Temp\ccp6NsMF.s 			page 3


  38              		.cfi_def_cfa_register 7
  39 0006 7860     		str	r0, [r7, #4]
  40 0008 3960     		str	r1, [r7]
  78:Generated_Source\PSoC4/cyfitter_cfg.c **** 	(void)memset(s, 0, n);
  41              		.loc 1 78 0
  42 000a 3A68     		ldr	r2, [r7]
  43 000c 7B68     		ldr	r3, [r7, #4]
  44 000e 0021     		movs	r1, #0
  45 0010 1800     		movs	r0, r3
  46 0012 FFF7FEFF 		bl	memset
  79:Generated_Source\PSoC4/cyfitter_cfg.c **** }
  47              		.loc 1 79 0
  48 0016 C046     		nop
  49 0018 BD46     		mov	sp, r7
  50 001a 02B0     		add	sp, sp, #8
  51              		@ sp needed
  52 001c 80BD     		pop	{r7, pc}
  53              		.cfi_endproc
  54              	.LFE0:
  55              		.size	CYMEMZERO, .-CYMEMZERO
  56 001e C046     		.section	.text.CYCONFIGCPY,"ax",%progbits
  57              		.align	2
  58              		.code	16
  59              		.thumb_func
  60              		.type	CYCONFIGCPY, %function
  61              	CYCONFIGCPY:
  62              	.LFB1:
  80:Generated_Source\PSoC4/cyfitter_cfg.c **** CY_CFG_UNUSED
  81:Generated_Source\PSoC4/cyfitter_cfg.c **** static void CYCONFIGCPY(void *dest, const void *src, size_t n);
  82:Generated_Source\PSoC4/cyfitter_cfg.c **** CY_CFG_UNUSED
  83:Generated_Source\PSoC4/cyfitter_cfg.c **** static void CYCONFIGCPY(void *dest, const void *src, size_t n)
  84:Generated_Source\PSoC4/cyfitter_cfg.c **** {
  63              		.loc 1 84 0
  64              		.cfi_startproc
  65              		@ args = 0, pretend = 0, frame = 16
  66              		@ frame_needed = 1, uses_anonymous_args = 0
  67 0000 80B5     		push	{r7, lr}
  68              		.cfi_def_cfa_offset 8
  69              		.cfi_offset 7, -8
  70              		.cfi_offset 14, -4
  71 0002 84B0     		sub	sp, sp, #16
  72              		.cfi_def_cfa_offset 24
  73 0004 00AF     		add	r7, sp, #0
  74              		.cfi_def_cfa_register 7
  75 0006 F860     		str	r0, [r7, #12]
  76 0008 B960     		str	r1, [r7, #8]
  77 000a 7A60     		str	r2, [r7, #4]
  85:Generated_Source\PSoC4/cyfitter_cfg.c **** 	(void)memcpy(dest, src, n);
  78              		.loc 1 85 0
  79 000c 7A68     		ldr	r2, [r7, #4]
  80 000e B968     		ldr	r1, [r7, #8]
  81 0010 FB68     		ldr	r3, [r7, #12]
  82 0012 1800     		movs	r0, r3
  83 0014 FFF7FEFF 		bl	memcpy
  86:Generated_Source\PSoC4/cyfitter_cfg.c **** }
  84              		.loc 1 86 0
  85 0018 C046     		nop
ARM GAS  C:\Users\Laurent\AppData\Local\Temp\ccp6NsMF.s 			page 4


  86 001a BD46     		mov	sp, r7
  87 001c 04B0     		add	sp, sp, #16
  88              		@ sp needed
  89 001e 80BD     		pop	{r7, pc}
  90              		.cfi_endproc
  91              	.LFE1:
  92              		.size	CYCONFIGCPY, .-CYCONFIGCPY
  93              		.section	.text.CYCONFIGCPYCODE,"ax",%progbits
  94              		.align	2
  95              		.code	16
  96              		.thumb_func
  97              		.type	CYCONFIGCPYCODE, %function
  98              	CYCONFIGCPYCODE:
  99              	.LFB2:
  87:Generated_Source\PSoC4/cyfitter_cfg.c **** CY_CFG_UNUSED
  88:Generated_Source\PSoC4/cyfitter_cfg.c **** static void CYCONFIGCPYCODE(void *dest, const void *src, size_t n);
  89:Generated_Source\PSoC4/cyfitter_cfg.c **** CY_CFG_UNUSED
  90:Generated_Source\PSoC4/cyfitter_cfg.c **** static void CYCONFIGCPYCODE(void *dest, const void *src, size_t n)
  91:Generated_Source\PSoC4/cyfitter_cfg.c **** {
 100              		.loc 1 91 0
 101              		.cfi_startproc
 102              		@ args = 0, pretend = 0, frame = 16
 103              		@ frame_needed = 1, uses_anonymous_args = 0
 104 0000 80B5     		push	{r7, lr}
 105              		.cfi_def_cfa_offset 8
 106              		.cfi_offset 7, -8
 107              		.cfi_offset 14, -4
 108 0002 84B0     		sub	sp, sp, #16
 109              		.cfi_def_cfa_offset 24
 110 0004 00AF     		add	r7, sp, #0
 111              		.cfi_def_cfa_register 7
 112 0006 F860     		str	r0, [r7, #12]
 113 0008 B960     		str	r1, [r7, #8]
 114 000a 7A60     		str	r2, [r7, #4]
  92:Generated_Source\PSoC4/cyfitter_cfg.c **** 	(void)memcpy(dest, src, n);
 115              		.loc 1 92 0
 116 000c 7A68     		ldr	r2, [r7, #4]
 117 000e B968     		ldr	r1, [r7, #8]
 118 0010 FB68     		ldr	r3, [r7, #12]
 119 0012 1800     		movs	r0, r3
 120 0014 FFF7FEFF 		bl	memcpy
  93:Generated_Source\PSoC4/cyfitter_cfg.c **** }
 121              		.loc 1 93 0
 122 0018 C046     		nop
 123 001a BD46     		mov	sp, r7
 124 001c 04B0     		add	sp, sp, #16
 125              		@ sp needed
 126 001e 80BD     		pop	{r7, pc}
 127              		.cfi_endproc
 128              	.LFE2:
 129              		.size	CYCONFIGCPYCODE, .-CYCONFIGCPYCODE
 130              		.section	.text.cfg_write_bytes32,"ax",%progbits
 131              		.align	2
 132              		.code	16
 133              		.thumb_func
 134              		.type	cfg_write_bytes32, %function
 135              	cfg_write_bytes32:
ARM GAS  C:\Users\Laurent\AppData\Local\Temp\ccp6NsMF.s 			page 5


 136              	.LFB3:
  94:Generated_Source\PSoC4/cyfitter_cfg.c **** 
  95:Generated_Source\PSoC4/cyfitter_cfg.c **** 
  96:Generated_Source\PSoC4/cyfitter_cfg.c **** 
  97:Generated_Source\PSoC4/cyfitter_cfg.c **** 
  98:Generated_Source\PSoC4/cyfitter_cfg.c **** /* Clock startup error codes                                                   */
  99:Generated_Source\PSoC4/cyfitter_cfg.c **** #define CYCLOCKSTART_NO_ERROR    0u
 100:Generated_Source\PSoC4/cyfitter_cfg.c **** #define CYCLOCKSTART_XTAL_ERROR  1u
 101:Generated_Source\PSoC4/cyfitter_cfg.c **** #define CYCLOCKSTART_32KHZ_ERROR 2u
 102:Generated_Source\PSoC4/cyfitter_cfg.c **** #define CYCLOCKSTART_PLL_ERROR   3u
 103:Generated_Source\PSoC4/cyfitter_cfg.c **** #define CYCLOCKSTART_FLL_ERROR   4u
 104:Generated_Source\PSoC4/cyfitter_cfg.c **** #define CYCLOCKSTART_WCO_ERROR   5u
 105:Generated_Source\PSoC4/cyfitter_cfg.c **** 
 106:Generated_Source\PSoC4/cyfitter_cfg.c **** 
 107:Generated_Source\PSoC4/cyfitter_cfg.c **** #ifdef CY_NEED_CYCLOCKSTARTUPERROR
 108:Generated_Source\PSoC4/cyfitter_cfg.c **** /*******************************************************************************
 109:Generated_Source\PSoC4/cyfitter_cfg.c **** * Function Name: CyClockStartupError
 110:Generated_Source\PSoC4/cyfitter_cfg.c **** ********************************************************************************
 111:Generated_Source\PSoC4/cyfitter_cfg.c **** * Summary:
 112:Generated_Source\PSoC4/cyfitter_cfg.c **** *  If an error is encountered during clock configuration (crystal startup error,
 113:Generated_Source\PSoC4/cyfitter_cfg.c **** *  PLL lock error, etc.), the system will end up here.  Unless reimplemented by
 114:Generated_Source\PSoC4/cyfitter_cfg.c **** *  the customer, this function will stop in an infinite loop.
 115:Generated_Source\PSoC4/cyfitter_cfg.c **** *
 116:Generated_Source\PSoC4/cyfitter_cfg.c **** * Parameters:
 117:Generated_Source\PSoC4/cyfitter_cfg.c **** *   void
 118:Generated_Source\PSoC4/cyfitter_cfg.c **** *
 119:Generated_Source\PSoC4/cyfitter_cfg.c **** * Return:
 120:Generated_Source\PSoC4/cyfitter_cfg.c **** *   void
 121:Generated_Source\PSoC4/cyfitter_cfg.c **** *
 122:Generated_Source\PSoC4/cyfitter_cfg.c **** *******************************************************************************/
 123:Generated_Source\PSoC4/cyfitter_cfg.c **** CY_CFG_UNUSED
 124:Generated_Source\PSoC4/cyfitter_cfg.c **** static void CyClockStartupError(uint8 errorCode);
 125:Generated_Source\PSoC4/cyfitter_cfg.c **** CY_CFG_UNUSED
 126:Generated_Source\PSoC4/cyfitter_cfg.c **** static void CyClockStartupError(uint8 errorCode)
 127:Generated_Source\PSoC4/cyfitter_cfg.c **** {
 128:Generated_Source\PSoC4/cyfitter_cfg.c ****     /* To remove the compiler warning if errorCode not used.                */
 129:Generated_Source\PSoC4/cyfitter_cfg.c ****     errorCode = errorCode;
 130:Generated_Source\PSoC4/cyfitter_cfg.c **** 
 131:Generated_Source\PSoC4/cyfitter_cfg.c ****     /* If we have a clock startup error (bad MHz crystal, PLL lock, etc.),  */
 132:Generated_Source\PSoC4/cyfitter_cfg.c ****     /* we will end up here to allow the customer to implement something to  */
 133:Generated_Source\PSoC4/cyfitter_cfg.c ****     /* deal with the clock condition.                                       */
 134:Generated_Source\PSoC4/cyfitter_cfg.c **** 
 135:Generated_Source\PSoC4/cyfitter_cfg.c **** #ifdef CY_CFG_CLOCK_STARTUP_ERROR_CALLBACK
 136:Generated_Source\PSoC4/cyfitter_cfg.c ****     CY_CFG_Clock_Startup_ErrorCallback();
 137:Generated_Source\PSoC4/cyfitter_cfg.c **** #else
 138:Generated_Source\PSoC4/cyfitter_cfg.c ****     /*  If not using CY_CFG_CLOCK_STARTUP_ERROR_CALLBACK, place your clock startup code here. */
 139:Generated_Source\PSoC4/cyfitter_cfg.c ****     /* `#START CyClockStartupError` */
 140:Generated_Source\PSoC4/cyfitter_cfg.c **** 
 141:Generated_Source\PSoC4/cyfitter_cfg.c **** 
 142:Generated_Source\PSoC4/cyfitter_cfg.c **** 
 143:Generated_Source\PSoC4/cyfitter_cfg.c ****     /* `#END` */
 144:Generated_Source\PSoC4/cyfitter_cfg.c **** 
 145:Generated_Source\PSoC4/cyfitter_cfg.c ****     while(1) {}
 146:Generated_Source\PSoC4/cyfitter_cfg.c **** #endif /* CY_CFG_CLOCK_STARTUP_ERROR_CALLBACK */
 147:Generated_Source\PSoC4/cyfitter_cfg.c **** }
 148:Generated_Source\PSoC4/cyfitter_cfg.c **** #endif
 149:Generated_Source\PSoC4/cyfitter_cfg.c **** 
ARM GAS  C:\Users\Laurent\AppData\Local\Temp\ccp6NsMF.s 			page 6


 150:Generated_Source\PSoC4/cyfitter_cfg.c **** #define CY_CFG_BASE_ADDR_COUNT 9u
 151:Generated_Source\PSoC4/cyfitter_cfg.c **** CYPACKED typedef struct
 152:Generated_Source\PSoC4/cyfitter_cfg.c **** {
 153:Generated_Source\PSoC4/cyfitter_cfg.c **** 	uint8 offset;
 154:Generated_Source\PSoC4/cyfitter_cfg.c **** 	uint8 value;
 155:Generated_Source\PSoC4/cyfitter_cfg.c **** } CYPACKED_ATTR cy_cfg_addrvalue_t;
 156:Generated_Source\PSoC4/cyfitter_cfg.c **** 
 157:Generated_Source\PSoC4/cyfitter_cfg.c **** 
 158:Generated_Source\PSoC4/cyfitter_cfg.c **** 
 159:Generated_Source\PSoC4/cyfitter_cfg.c **** /*******************************************************************************
 160:Generated_Source\PSoC4/cyfitter_cfg.c **** * Function Name: cfg_write_bytes32
 161:Generated_Source\PSoC4/cyfitter_cfg.c **** ********************************************************************************
 162:Generated_Source\PSoC4/cyfitter_cfg.c **** * Summary:
 163:Generated_Source\PSoC4/cyfitter_cfg.c **** *  This function is used for setting up the chip configuration areas that
 164:Generated_Source\PSoC4/cyfitter_cfg.c **** *  contain relatively sparse data.
 165:Generated_Source\PSoC4/cyfitter_cfg.c **** *
 166:Generated_Source\PSoC4/cyfitter_cfg.c **** * Parameters:
 167:Generated_Source\PSoC4/cyfitter_cfg.c **** *   void
 168:Generated_Source\PSoC4/cyfitter_cfg.c **** *
 169:Generated_Source\PSoC4/cyfitter_cfg.c **** * Return:
 170:Generated_Source\PSoC4/cyfitter_cfg.c **** *   void
 171:Generated_Source\PSoC4/cyfitter_cfg.c **** *
 172:Generated_Source\PSoC4/cyfitter_cfg.c **** *******************************************************************************/
 173:Generated_Source\PSoC4/cyfitter_cfg.c **** static void cfg_write_bytes32(const uint32 addr_table[], const cy_cfg_addrvalue_t data_table[]);
 174:Generated_Source\PSoC4/cyfitter_cfg.c **** static void cfg_write_bytes32(const uint32 addr_table[], const cy_cfg_addrvalue_t data_table[])
 175:Generated_Source\PSoC4/cyfitter_cfg.c **** {
 137              		.loc 1 175 0
 138              		.cfi_startproc
 139              		@ args = 0, pretend = 0, frame = 24
 140              		@ frame_needed = 1, uses_anonymous_args = 0
 141 0000 80B5     		push	{r7, lr}
 142              		.cfi_def_cfa_offset 8
 143              		.cfi_offset 7, -8
 144              		.cfi_offset 14, -4
 145 0002 86B0     		sub	sp, sp, #24
 146              		.cfi_def_cfa_offset 32
 147 0004 00AF     		add	r7, sp, #0
 148              		.cfi_def_cfa_register 7
 149 0006 7860     		str	r0, [r7, #4]
 150 0008 3960     		str	r1, [r7]
 176:Generated_Source\PSoC4/cyfitter_cfg.c **** 	/* For 32-bit little-endian architectures */
 177:Generated_Source\PSoC4/cyfitter_cfg.c **** 	uint32 i, j = 0u;
 151              		.loc 1 177 0
 152 000a 0023     		movs	r3, #0
 153 000c 3B61     		str	r3, [r7, #16]
 178:Generated_Source\PSoC4/cyfitter_cfg.c **** 	for (i = 0u; i < CY_CFG_BASE_ADDR_COUNT; i++)
 154              		.loc 1 178 0
 155 000e 0023     		movs	r3, #0
 156 0010 7B61     		str	r3, [r7, #20]
 157 0012 2FE0     		b	.L5
 158              	.L8:
 159              	.LBB2:
 179:Generated_Source\PSoC4/cyfitter_cfg.c **** 	{
 180:Generated_Source\PSoC4/cyfitter_cfg.c **** 		uint32 baseAddr = addr_table[i];
 160              		.loc 1 180 0
 161 0014 7B69     		ldr	r3, [r7, #20]
 162 0016 9B00     		lsls	r3, r3, #2
ARM GAS  C:\Users\Laurent\AppData\Local\Temp\ccp6NsMF.s 			page 7


 163 0018 7A68     		ldr	r2, [r7, #4]
 164 001a D318     		adds	r3, r2, r3
 165 001c 1B68     		ldr	r3, [r3]
 166 001e BB60     		str	r3, [r7, #8]
 181:Generated_Source\PSoC4/cyfitter_cfg.c **** 		uint8 count = (uint8)baseAddr;
 167              		.loc 1 181 0
 168 0020 0F23     		movs	r3, #15
 169 0022 FB18     		adds	r3, r7, r3
 170 0024 BA68     		ldr	r2, [r7, #8]
 171 0026 1A70     		strb	r2, [r3]
 182:Generated_Source\PSoC4/cyfitter_cfg.c **** 		baseAddr &= 0xFFFFFF00u;
 172              		.loc 1 182 0
 173 0028 BB68     		ldr	r3, [r7, #8]
 174 002a FF22     		movs	r2, #255
 175 002c 9343     		bics	r3, r2
 176 002e BB60     		str	r3, [r7, #8]
 183:Generated_Source\PSoC4/cyfitter_cfg.c **** 		while (count != 0u)
 177              		.loc 1 183 0
 178 0030 18E0     		b	.L6
 179              	.L7:
 184:Generated_Source\PSoC4/cyfitter_cfg.c **** 		{
 185:Generated_Source\PSoC4/cyfitter_cfg.c **** 			CY_SET_REG8((void *)(baseAddr + data_table[j].offset), data_table[j].value);
 180              		.loc 1 185 0
 181 0032 3B69     		ldr	r3, [r7, #16]
 182 0034 5B00     		lsls	r3, r3, #1
 183 0036 3A68     		ldr	r2, [r7]
 184 0038 D318     		adds	r3, r2, r3
 185 003a 1B78     		ldrb	r3, [r3]
 186 003c 1A00     		movs	r2, r3
 187 003e BB68     		ldr	r3, [r7, #8]
 188 0040 D318     		adds	r3, r2, r3
 189 0042 1900     		movs	r1, r3
 190 0044 3B69     		ldr	r3, [r7, #16]
 191 0046 5B00     		lsls	r3, r3, #1
 192 0048 3A68     		ldr	r2, [r7]
 193 004a D318     		adds	r3, r2, r3
 194 004c 5B78     		ldrb	r3, [r3, #1]
 195 004e 0B70     		strb	r3, [r1]
 186:Generated_Source\PSoC4/cyfitter_cfg.c **** 			j++;
 196              		.loc 1 186 0
 197 0050 3B69     		ldr	r3, [r7, #16]
 198 0052 0133     		adds	r3, r3, #1
 199 0054 3B61     		str	r3, [r7, #16]
 187:Generated_Source\PSoC4/cyfitter_cfg.c **** 			count--;
 200              		.loc 1 187 0
 201 0056 0F23     		movs	r3, #15
 202 0058 FB18     		adds	r3, r7, r3
 203 005a 1A78     		ldrb	r2, [r3]
 204 005c 0F23     		movs	r3, #15
 205 005e FB18     		adds	r3, r7, r3
 206 0060 013A     		subs	r2, r2, #1
 207 0062 1A70     		strb	r2, [r3]
 208              	.L6:
 183:Generated_Source\PSoC4/cyfitter_cfg.c **** 		{
 209              		.loc 1 183 0
 210 0064 0F23     		movs	r3, #15
 211 0066 FB18     		adds	r3, r7, r3
ARM GAS  C:\Users\Laurent\AppData\Local\Temp\ccp6NsMF.s 			page 8


 212 0068 1B78     		ldrb	r3, [r3]
 213 006a 002B     		cmp	r3, #0
 214 006c E1D1     		bne	.L7
 215              	.LBE2:
 178:Generated_Source\PSoC4/cyfitter_cfg.c **** 	{
 216              		.loc 1 178 0 discriminator 2
 217 006e 7B69     		ldr	r3, [r7, #20]
 218 0070 0133     		adds	r3, r3, #1
 219 0072 7B61     		str	r3, [r7, #20]
 220              	.L5:
 178:Generated_Source\PSoC4/cyfitter_cfg.c **** 	{
 221              		.loc 1 178 0 is_stmt 0 discriminator 1
 222 0074 7B69     		ldr	r3, [r7, #20]
 223 0076 082B     		cmp	r3, #8
 224 0078 CCD9     		bls	.L8
 188:Generated_Source\PSoC4/cyfitter_cfg.c **** 		}
 189:Generated_Source\PSoC4/cyfitter_cfg.c **** 	}
 190:Generated_Source\PSoC4/cyfitter_cfg.c **** }
 225              		.loc 1 190 0 is_stmt 1
 226 007a C046     		nop
 227 007c BD46     		mov	sp, r7
 228 007e 06B0     		add	sp, sp, #24
 229              		@ sp needed
 230 0080 80BD     		pop	{r7, pc}
 231              		.cfi_endproc
 232              	.LFE3:
 233              		.size	cfg_write_bytes32, .-cfg_write_bytes32
 234 0082 C046     		.section	.psocinit,"ax",%progbits
 235              		.align	2
 236              		.code	16
 237              		.thumb_func
 238              		.type	ClockSetup, %function
 239              	ClockSetup:
 240              	.LFB4:
 191:Generated_Source\PSoC4/cyfitter_cfg.c **** 
 192:Generated_Source\PSoC4/cyfitter_cfg.c **** 
 193:Generated_Source\PSoC4/cyfitter_cfg.c **** /*******************************************************************************
 194:Generated_Source\PSoC4/cyfitter_cfg.c **** * Function Name: ClockSetup
 195:Generated_Source\PSoC4/cyfitter_cfg.c **** ********************************************************************************
 196:Generated_Source\PSoC4/cyfitter_cfg.c **** *
 197:Generated_Source\PSoC4/cyfitter_cfg.c **** * Summary:
 198:Generated_Source\PSoC4/cyfitter_cfg.c **** *   Performs the initialization of all of the clocks in the device based on the
 199:Generated_Source\PSoC4/cyfitter_cfg.c **** *   settings in the Clock tab of the DWR.  This includes enabling the requested
 200:Generated_Source\PSoC4/cyfitter_cfg.c **** *   clocks and setting the necessary dividers to produce the desired frequency. 
 201:Generated_Source\PSoC4/cyfitter_cfg.c **** *
 202:Generated_Source\PSoC4/cyfitter_cfg.c **** * Parameters:
 203:Generated_Source\PSoC4/cyfitter_cfg.c **** *   void
 204:Generated_Source\PSoC4/cyfitter_cfg.c **** *
 205:Generated_Source\PSoC4/cyfitter_cfg.c **** * Return:
 206:Generated_Source\PSoC4/cyfitter_cfg.c **** *   void
 207:Generated_Source\PSoC4/cyfitter_cfg.c **** *
 208:Generated_Source\PSoC4/cyfitter_cfg.c **** *******************************************************************************/
 209:Generated_Source\PSoC4/cyfitter_cfg.c **** static void ClockSetup(void);
 210:Generated_Source\PSoC4/cyfitter_cfg.c **** CY_CFG_SECTION
 211:Generated_Source\PSoC4/cyfitter_cfg.c **** static void ClockSetup(void)
 212:Generated_Source\PSoC4/cyfitter_cfg.c **** {
 241              		.loc 1 212 0
ARM GAS  C:\Users\Laurent\AppData\Local\Temp\ccp6NsMF.s 			page 9


 242              		.cfi_startproc
 243              		@ args = 0, pretend = 0, frame = 0
 244              		@ frame_needed = 1, uses_anonymous_args = 0
 245 0000 80B5     		push	{r7, lr}
 246              		.cfi_def_cfa_offset 8
 247              		.cfi_offset 7, -8
 248              		.cfi_offset 14, -4
 249 0002 00AF     		add	r7, sp, #0
 250              		.cfi_def_cfa_register 7
 213:Generated_Source\PSoC4/cyfitter_cfg.c **** 	/* Enable HALF_EN before trimming for the flash accelerator. */
 214:Generated_Source\PSoC4/cyfitter_cfg.c **** 	CY_SET_REG32((void CYXDATA *)(CYREG_CLK_SELECT), (CY_GET_REG32((void *)CYREG_CLK_SELECT) | 0x00040
 251              		.loc 1 214 0
 252 0004 204B     		ldr	r3, .L10
 253 0006 204A     		ldr	r2, .L10
 254 0008 1268     		ldr	r2, [r2]
 255 000a 8021     		movs	r1, #128
 256 000c C902     		lsls	r1, r1, #11
 257 000e 0A43     		orrs	r2, r1
 258 0010 1A60     		str	r2, [r3]
 215:Generated_Source\PSoC4/cyfitter_cfg.c **** 
 216:Generated_Source\PSoC4/cyfitter_cfg.c **** 	/* Setup and trim IMO based on desired frequency. */
 217:Generated_Source\PSoC4/cyfitter_cfg.c **** 	CySysClkWriteImoFreq(33u);
 259              		.loc 1 217 0
 260 0012 2120     		movs	r0, #33
 261 0014 FFF7FEFF 		bl	CySysClkWriteImoFreq
 218:Generated_Source\PSoC4/cyfitter_cfg.c **** 	/* CYDEV_CLK_ILO_CONFIG Starting address: CYDEV_CLK_ILO_CONFIG */
 219:Generated_Source\PSoC4/cyfitter_cfg.c **** 	CY_SET_REG32((void *)(CYREG_CLK_ILO_CONFIG), 0x80000006u);
 262              		.loc 1 219 0
 263 0018 1C4B     		ldr	r3, .L10+4
 264 001a 1D4A     		ldr	r2, .L10+8
 265 001c 1A60     		str	r2, [r3]
 220:Generated_Source\PSoC4/cyfitter_cfg.c **** 
 221:Generated_Source\PSoC4/cyfitter_cfg.c **** 
 222:Generated_Source\PSoC4/cyfitter_cfg.c **** 	/* CYDEV_CLK_SELECT00 Starting address: CYDEV_CLK_SELECT00 */
 223:Generated_Source\PSoC4/cyfitter_cfg.c **** 	CY_SET_REG32((void *)(CYREG_CLK_SELECT02), 0x00000011u);
 266              		.loc 1 223 0
 267 001e 1D4B     		ldr	r3, .L10+12
 268 0020 1122     		movs	r2, #17
 269 0022 1A60     		str	r2, [r3]
 224:Generated_Source\PSoC4/cyfitter_cfg.c **** 	CY_SET_REG32((void *)(CYREG_CLK_SELECT08), 0x00000021u);
 270              		.loc 1 224 0
 271 0024 1C4B     		ldr	r3, .L10+16
 272 0026 2122     		movs	r2, #33
 273 0028 1A60     		str	r2, [r3]
 225:Generated_Source\PSoC4/cyfitter_cfg.c **** 	CY_SET_REG32((void *)(CYREG_CLK_SELECT09), 0x00000010u);
 274              		.loc 1 225 0
 275 002a 1C4B     		ldr	r3, .L10+20
 276 002c 1022     		movs	r2, #16
 277 002e 1A60     		str	r2, [r3]
 226:Generated_Source\PSoC4/cyfitter_cfg.c **** 	CY_SET_REG32((void *)(CYREG_CLK_SELECT10), 0x00000030u);
 278              		.loc 1 226 0
 279 0030 1B4B     		ldr	r3, .L10+24
 280 0032 3022     		movs	r2, #48
 281 0034 1A60     		str	r2, [r3]
 227:Generated_Source\PSoC4/cyfitter_cfg.c **** 	CY_SET_REG32((void *)(CYREG_CLK_SELECT12), 0x00000020u);
 282              		.loc 1 227 0
 283 0036 1B4B     		ldr	r3, .L10+28
ARM GAS  C:\Users\Laurent\AppData\Local\Temp\ccp6NsMF.s 			page 10


 284 0038 2022     		movs	r2, #32
 285 003a 1A60     		str	r2, [r3]
 228:Generated_Source\PSoC4/cyfitter_cfg.c **** 
 229:Generated_Source\PSoC4/cyfitter_cfg.c **** 	/* CYDEV_CLK_IMO_CONFIG Starting address: CYDEV_CLK_IMO_CONFIG */
 230:Generated_Source\PSoC4/cyfitter_cfg.c **** 	CY_SET_REG32((void *)(CYREG_CLK_IMO_CONFIG), 0x80000000u);
 286              		.loc 1 230 0
 287 003c 1A4B     		ldr	r3, .L10+32
 288 003e 8022     		movs	r2, #128
 289 0040 1206     		lsls	r2, r2, #24
 290 0042 1A60     		str	r2, [r3]
 231:Generated_Source\PSoC4/cyfitter_cfg.c **** 
 232:Generated_Source\PSoC4/cyfitter_cfg.c **** 	/* CYDEV_CLK_SELECT Starting address: CYDEV_CLK_SELECT */
 233:Generated_Source\PSoC4/cyfitter_cfg.c **** 	CY_SET_REG32((void *)(CYREG_CLK_SELECT), 0x00040000u);
 291              		.loc 1 233 0
 292 0044 104B     		ldr	r3, .L10
 293 0046 8022     		movs	r2, #128
 294 0048 D202     		lsls	r2, r2, #11
 295 004a 1A60     		str	r2, [r3]
 234:Generated_Source\PSoC4/cyfitter_cfg.c **** 
 235:Generated_Source\PSoC4/cyfitter_cfg.c **** 	/* CYDEV_CLK_DIVIDER_A00 Starting address: CYDEV_CLK_DIVIDER_A00 */
 236:Generated_Source\PSoC4/cyfitter_cfg.c **** 	CY_SET_REG32((void *)(CYREG_CLK_DIVIDER_A00), 0x80000000u);
 296              		.loc 1 236 0
 297 004c 174B     		ldr	r3, .L10+36
 298 004e 8022     		movs	r2, #128
 299 0050 1206     		lsls	r2, r2, #24
 300 0052 1A60     		str	r2, [r3]
 237:Generated_Source\PSoC4/cyfitter_cfg.c **** 
 238:Generated_Source\PSoC4/cyfitter_cfg.c **** 	/* CYDEV_CLK_DIVIDER_B00 Starting address: CYDEV_CLK_DIVIDER_B00 */
 239:Generated_Source\PSoC4/cyfitter_cfg.c **** 	CY_SET_REG32((void *)(CYREG_CLK_DIVIDER_B00), 0x80000001u);
 301              		.loc 1 239 0
 302 0054 164B     		ldr	r3, .L10+40
 303 0056 174A     		ldr	r2, .L10+44
 304 0058 1A60     		str	r2, [r3]
 240:Generated_Source\PSoC4/cyfitter_cfg.c **** 
 241:Generated_Source\PSoC4/cyfitter_cfg.c **** 	/* CYDEV_CLK_DIVIDER_C00 Starting address: CYDEV_CLK_DIVIDER_C00 */
 242:Generated_Source\PSoC4/cyfitter_cfg.c **** 	CY_SET_REG32((void *)(CYREG_CLK_DIVIDER_C00), 0x80000001u);
 305              		.loc 1 242 0
 306 005a 174B     		ldr	r3, .L10+48
 307 005c 154A     		ldr	r2, .L10+44
 308 005e 1A60     		str	r2, [r3]
 243:Generated_Source\PSoC4/cyfitter_cfg.c **** 
 244:Generated_Source\PSoC4/cyfitter_cfg.c **** 	/* CYDEV_CLK_DIVIDER_A01 Starting address: CYDEV_CLK_DIVIDER_A01 */
 245:Generated_Source\PSoC4/cyfitter_cfg.c **** 	CY_SET_REG32((void *)(CYREG_CLK_DIVIDER_A01), 0x80000003u);
 309              		.loc 1 245 0
 310 0060 164B     		ldr	r3, .L10+52
 311 0062 174A     		ldr	r2, .L10+56
 312 0064 1A60     		str	r2, [r3]
 246:Generated_Source\PSoC4/cyfitter_cfg.c **** 
 247:Generated_Source\PSoC4/cyfitter_cfg.c **** 	/* CYDEV_CLK_DIVIDER_B01 Starting address: CYDEV_CLK_DIVIDER_B01 */
 248:Generated_Source\PSoC4/cyfitter_cfg.c **** 	CY_SET_REG32((void *)(CYREG_CLK_DIVIDER_B01), 0x80002039u);
 313              		.loc 1 248 0
 314 0066 174B     		ldr	r3, .L10+60
 315 0068 174A     		ldr	r2, .L10+64
 316 006a 1A60     		str	r2, [r3]
 249:Generated_Source\PSoC4/cyfitter_cfg.c **** 
 250:Generated_Source\PSoC4/cyfitter_cfg.c **** 	(void)CyIntSetVector(9u, &CySysWdtIsr);
 317              		.loc 1 250 0
ARM GAS  C:\Users\Laurent\AppData\Local\Temp\ccp6NsMF.s 			page 11


 318 006c 174B     		ldr	r3, .L10+68
 319 006e 1900     		movs	r1, r3
 320 0070 0920     		movs	r0, #9
 321 0072 FFF7FEFF 		bl	CyIntSetVector
 251:Generated_Source\PSoC4/cyfitter_cfg.c **** 	CyIntEnable(9u);
 322              		.loc 1 251 0
 323 0076 0920     		movs	r0, #9
 324 0078 FFF7FEFF 		bl	CyIntEnable
 252:Generated_Source\PSoC4/cyfitter_cfg.c **** 	CY_SET_REG32((void *)(CYREG_WDT_CONFIG), 0x00000000u);
 325              		.loc 1 252 0
 326 007c 144B     		ldr	r3, .L10+72
 327 007e 0022     		movs	r2, #0
 328 0080 1A60     		str	r2, [r3]
 253:Generated_Source\PSoC4/cyfitter_cfg.c **** }
 329              		.loc 1 253 0
 330 0082 C046     		nop
 331 0084 BD46     		mov	sp, r7
 332              		@ sp needed
 333 0086 80BD     		pop	{r7, pc}
 334              	.L11:
 335              		.align	2
 336              	.L10:
 337 0088 00010B40 		.word	1074462976
 338 008c 04010B40 		.word	1074462980
 339 0090 06000080 		.word	-2147483642
 340 0094 08020240 		.word	1073873416
 341 0098 20020240 		.word	1073873440
 342 009c 24020240 		.word	1073873444
 343 00a0 28020240 		.word	1073873448
 344 00a4 30020240 		.word	1073873456
 345 00a8 08010B40 		.word	1074462984
 346 00ac 00000240 		.word	1073872896
 347 00b0 40000240 		.word	1073872960
 348 00b4 01000080 		.word	-2147483647
 349 00b8 80000240 		.word	1073873024
 350 00bc 04000240 		.word	1073872900
 351 00c0 03000080 		.word	-2147483645
 352 00c4 44000240 		.word	1073872964
 353 00c8 39200080 		.word	-2147475399
 354 00cc 00000000 		.word	CySysWdtIsr
 355 00d0 0C020B40 		.word	1074463244
 356              		.cfi_endproc
 357              	.LFE4:
 358              		.size	ClockSetup, .-ClockSetup
 359              		.section	.text.AnalogSetDefault,"ax",%progbits
 360              		.align	2
 361              		.code	16
 362              		.thumb_func
 363              		.type	AnalogSetDefault, %function
 364              	AnalogSetDefault:
 365              	.LFB5:
 254:Generated_Source\PSoC4/cyfitter_cfg.c **** 
 255:Generated_Source\PSoC4/cyfitter_cfg.c **** 
 256:Generated_Source\PSoC4/cyfitter_cfg.c **** /* Analog API Functions */
 257:Generated_Source\PSoC4/cyfitter_cfg.c **** 
 258:Generated_Source\PSoC4/cyfitter_cfg.c **** 
 259:Generated_Source\PSoC4/cyfitter_cfg.c **** /*******************************************************************************
ARM GAS  C:\Users\Laurent\AppData\Local\Temp\ccp6NsMF.s 			page 12


 260:Generated_Source\PSoC4/cyfitter_cfg.c **** * Function Name: AnalogSetDefault
 261:Generated_Source\PSoC4/cyfitter_cfg.c **** ********************************************************************************
 262:Generated_Source\PSoC4/cyfitter_cfg.c **** *
 263:Generated_Source\PSoC4/cyfitter_cfg.c **** * Summary:
 264:Generated_Source\PSoC4/cyfitter_cfg.c **** *  Sets up the analog portions of the chip to default values based on chip
 265:Generated_Source\PSoC4/cyfitter_cfg.c **** *  configuration options from the project.
 266:Generated_Source\PSoC4/cyfitter_cfg.c **** *
 267:Generated_Source\PSoC4/cyfitter_cfg.c **** * Parameters:
 268:Generated_Source\PSoC4/cyfitter_cfg.c **** *  void
 269:Generated_Source\PSoC4/cyfitter_cfg.c **** *
 270:Generated_Source\PSoC4/cyfitter_cfg.c **** * Return:
 271:Generated_Source\PSoC4/cyfitter_cfg.c **** *  void
 272:Generated_Source\PSoC4/cyfitter_cfg.c **** *
 273:Generated_Source\PSoC4/cyfitter_cfg.c **** *******************************************************************************/
 274:Generated_Source\PSoC4/cyfitter_cfg.c **** static void AnalogSetDefault(void);
 275:Generated_Source\PSoC4/cyfitter_cfg.c **** static void AnalogSetDefault(void)
 276:Generated_Source\PSoC4/cyfitter_cfg.c **** {
 366              		.loc 1 276 0
 367              		.cfi_startproc
 368              		@ args = 0, pretend = 0, frame = 0
 369              		@ frame_needed = 1, uses_anonymous_args = 0
 370 0000 80B5     		push	{r7, lr}
 371              		.cfi_def_cfa_offset 8
 372              		.cfi_offset 7, -8
 373              		.cfi_offset 14, -4
 374 0002 00AF     		add	r7, sp, #0
 375              		.cfi_def_cfa_register 7
 277:Generated_Source\PSoC4/cyfitter_cfg.c **** }
 376              		.loc 1 277 0
 377 0004 C046     		nop
 378 0006 BD46     		mov	sp, r7
 379              		@ sp needed
 380 0008 80BD     		pop	{r7, pc}
 381              		.cfi_endproc
 382              	.LFE5:
 383              		.size	AnalogSetDefault, .-AnalogSetDefault
 384 000a C046     		.section	.psocinit
 385              		.align	2
 386              		.global	cyfitter_cfg
 387              		.code	16
 388              		.thumb_func
 389              		.type	cyfitter_cfg, %function
 390              	cyfitter_cfg:
 391              	.LFB6:
 278:Generated_Source\PSoC4/cyfitter_cfg.c **** 
 279:Generated_Source\PSoC4/cyfitter_cfg.c **** 
 280:Generated_Source\PSoC4/cyfitter_cfg.c **** 
 281:Generated_Source\PSoC4/cyfitter_cfg.c **** 
 282:Generated_Source\PSoC4/cyfitter_cfg.c **** /*******************************************************************************
 283:Generated_Source\PSoC4/cyfitter_cfg.c **** * Function Name: cyfitter_cfg
 284:Generated_Source\PSoC4/cyfitter_cfg.c **** ********************************************************************************
 285:Generated_Source\PSoC4/cyfitter_cfg.c **** * Summary:
 286:Generated_Source\PSoC4/cyfitter_cfg.c **** *  This function is called by the start-up code for the selected device. It
 287:Generated_Source\PSoC4/cyfitter_cfg.c **** *  performs all of the necessary device configuration based on the design
 288:Generated_Source\PSoC4/cyfitter_cfg.c **** *  settings.  This includes settings from the Design Wide Resources (DWR) such
 289:Generated_Source\PSoC4/cyfitter_cfg.c **** *  as Clocks and Pins as well as any component configuration that is necessary.
 290:Generated_Source\PSoC4/cyfitter_cfg.c **** *
ARM GAS  C:\Users\Laurent\AppData\Local\Temp\ccp6NsMF.s 			page 13


 291:Generated_Source\PSoC4/cyfitter_cfg.c **** * Parameters:
 292:Generated_Source\PSoC4/cyfitter_cfg.c **** *   void
 293:Generated_Source\PSoC4/cyfitter_cfg.c **** *
 294:Generated_Source\PSoC4/cyfitter_cfg.c **** * Return:
 295:Generated_Source\PSoC4/cyfitter_cfg.c **** *   void
 296:Generated_Source\PSoC4/cyfitter_cfg.c **** *
 297:Generated_Source\PSoC4/cyfitter_cfg.c **** *******************************************************************************/
 298:Generated_Source\PSoC4/cyfitter_cfg.c **** CY_CFG_SECTION
 299:Generated_Source\PSoC4/cyfitter_cfg.c **** void cyfitter_cfg(void)
 300:Generated_Source\PSoC4/cyfitter_cfg.c **** {
 392              		.loc 1 300 0
 393              		.cfi_startproc
 394              		@ args = 0, pretend = 0, frame = 8
 395              		@ frame_needed = 1, uses_anonymous_args = 0
 396 00d4 80B5     		push	{r7, lr}
 397              		.cfi_def_cfa_offset 8
 398              		.cfi_offset 7, -8
 399              		.cfi_offset 14, -4
 400 00d6 82B0     		sub	sp, sp, #8
 401              		.cfi_def_cfa_offset 16
 402 00d8 00AF     		add	r7, sp, #0
 403              		.cfi_def_cfa_register 7
 301:Generated_Source\PSoC4/cyfitter_cfg.c **** 	/* Disable interrupts by default. Let user enable if/when they want. */
 302:Generated_Source\PSoC4/cyfitter_cfg.c **** 	CyGlobalIntDisable;
 404              		.loc 1 302 0
 405              		.syntax divided
 406              	@ 302 "Generated_Source\PSoC4\cyfitter_cfg.c" 1
 407 00da 72B6     		CPSID   i
 408              	@ 0 "" 2
 409              		.thumb
 410              		.syntax unified
 411              	.LBB3:
 303:Generated_Source\PSoC4/cyfitter_cfg.c **** 
 304:Generated_Source\PSoC4/cyfitter_cfg.c **** 	{
 305:Generated_Source\PSoC4/cyfitter_cfg.c **** 		static const uint32 CYCODE cy_cfg_addr_table[] = {
 306:Generated_Source\PSoC4/cyfitter_cfg.c **** 			0x400F0001u, /* Base address: 0x400F0000 Count: 1 */
 307:Generated_Source\PSoC4/cyfitter_cfg.c **** 			0x400F304Du, /* Base address: 0x400F3000 Count: 77 */
 308:Generated_Source\PSoC4/cyfitter_cfg.c **** 			0x400F312Du, /* Base address: 0x400F3100 Count: 45 */
 309:Generated_Source\PSoC4/cyfitter_cfg.c **** 			0x400F3210u, /* Base address: 0x400F3200 Count: 16 */
 310:Generated_Source\PSoC4/cyfitter_cfg.c **** 			0x400F331Cu, /* Base address: 0x400F3300 Count: 28 */
 311:Generated_Source\PSoC4/cyfitter_cfg.c **** 			0x400F4003u, /* Base address: 0x400F4000 Count: 3 */
 312:Generated_Source\PSoC4/cyfitter_cfg.c **** 			0x400F4110u, /* Base address: 0x400F4100 Count: 16 */
 313:Generated_Source\PSoC4/cyfitter_cfg.c **** 			0x400F4308u, /* Base address: 0x400F4300 Count: 8 */
 314:Generated_Source\PSoC4/cyfitter_cfg.c **** 			0x400F6002u, /* Base address: 0x400F6000 Count: 2 */
 315:Generated_Source\PSoC4/cyfitter_cfg.c **** 		};
 316:Generated_Source\PSoC4/cyfitter_cfg.c **** 
 317:Generated_Source\PSoC4/cyfitter_cfg.c **** 		static const cy_cfg_addrvalue_t CYCODE cy_cfg_data_table[] = {
 318:Generated_Source\PSoC4/cyfitter_cfg.c **** 			{0x81u, 0x6Fu},
 319:Generated_Source\PSoC4/cyfitter_cfg.c **** 			{0x08u, 0x01u},
 320:Generated_Source\PSoC4/cyfitter_cfg.c **** 			{0x22u, 0x03u},
 321:Generated_Source\PSoC4/cyfitter_cfg.c **** 			{0x30u, 0x01u},
 322:Generated_Source\PSoC4/cyfitter_cfg.c **** 			{0x32u, 0x02u},
 323:Generated_Source\PSoC4/cyfitter_cfg.c **** 			{0x3Eu, 0x01u},
 324:Generated_Source\PSoC4/cyfitter_cfg.c **** 			{0x40u, 0x40u},
 325:Generated_Source\PSoC4/cyfitter_cfg.c **** 			{0x41u, 0x03u},
 326:Generated_Source\PSoC4/cyfitter_cfg.c **** 			{0x49u, 0xFFu},
 327:Generated_Source\PSoC4/cyfitter_cfg.c **** 			{0x4Au, 0xFFu},
ARM GAS  C:\Users\Laurent\AppData\Local\Temp\ccp6NsMF.s 			page 14


 328:Generated_Source\PSoC4/cyfitter_cfg.c **** 			{0x4Bu, 0xFFu},
 329:Generated_Source\PSoC4/cyfitter_cfg.c **** 			{0x4Du, 0xA0u},
 330:Generated_Source\PSoC4/cyfitter_cfg.c **** 			{0x4Fu, 0x01u},
 331:Generated_Source\PSoC4/cyfitter_cfg.c **** 			{0x50u, 0x18u},
 332:Generated_Source\PSoC4/cyfitter_cfg.c **** 			{0x58u, 0x04u},
 333:Generated_Source\PSoC4/cyfitter_cfg.c **** 			{0x5Au, 0x04u},
 334:Generated_Source\PSoC4/cyfitter_cfg.c **** 			{0x5Bu, 0x04u},
 335:Generated_Source\PSoC4/cyfitter_cfg.c **** 			{0x5Fu, 0x01u},
 336:Generated_Source\PSoC4/cyfitter_cfg.c **** 			{0x60u, 0x40u},
 337:Generated_Source\PSoC4/cyfitter_cfg.c **** 			{0x62u, 0x80u},
 338:Generated_Source\PSoC4/cyfitter_cfg.c **** 			{0x64u, 0x40u},
 339:Generated_Source\PSoC4/cyfitter_cfg.c **** 			{0x65u, 0x40u},
 340:Generated_Source\PSoC4/cyfitter_cfg.c **** 			{0x66u, 0x80u},
 341:Generated_Source\PSoC4/cyfitter_cfg.c **** 			{0x68u, 0x40u},
 342:Generated_Source\PSoC4/cyfitter_cfg.c **** 			{0x6Au, 0x80u},
 343:Generated_Source\PSoC4/cyfitter_cfg.c **** 			{0x6Cu, 0x40u},
 344:Generated_Source\PSoC4/cyfitter_cfg.c **** 			{0x6Du, 0x20u},
 345:Generated_Source\PSoC4/cyfitter_cfg.c **** 			{0x6Eu, 0x80u},
 346:Generated_Source\PSoC4/cyfitter_cfg.c **** 			{0x80u, 0x01u},
 347:Generated_Source\PSoC4/cyfitter_cfg.c **** 			{0x83u, 0x03u},
 348:Generated_Source\PSoC4/cyfitter_cfg.c **** 			{0x94u, 0x04u},
 349:Generated_Source\PSoC4/cyfitter_cfg.c **** 			{0x9Du, 0x03u},
 350:Generated_Source\PSoC4/cyfitter_cfg.c **** 			{0x9Eu, 0x0Cu},
 351:Generated_Source\PSoC4/cyfitter_cfg.c **** 			{0xA5u, 0x0Au},
 352:Generated_Source\PSoC4/cyfitter_cfg.c **** 			{0xA7u, 0x05u},
 353:Generated_Source\PSoC4/cyfitter_cfg.c **** 			{0xA9u, 0x05u},
 354:Generated_Source\PSoC4/cyfitter_cfg.c **** 			{0xABu, 0x0Au},
 355:Generated_Source\PSoC4/cyfitter_cfg.c **** 			{0xADu, 0x10u},
 356:Generated_Source\PSoC4/cyfitter_cfg.c **** 			{0xAEu, 0x03u},
 357:Generated_Source\PSoC4/cyfitter_cfg.c **** 			{0xB0u, 0x02u},
 358:Generated_Source\PSoC4/cyfitter_cfg.c **** 			{0xB1u, 0x03u},
 359:Generated_Source\PSoC4/cyfitter_cfg.c **** 			{0xB2u, 0x08u},
 360:Generated_Source\PSoC4/cyfitter_cfg.c **** 			{0xB3u, 0x10u},
 361:Generated_Source\PSoC4/cyfitter_cfg.c **** 			{0xB4u, 0x04u},
 362:Generated_Source\PSoC4/cyfitter_cfg.c **** 			{0xB6u, 0x01u},
 363:Generated_Source\PSoC4/cyfitter_cfg.c **** 			{0xB7u, 0x0Cu},
 364:Generated_Source\PSoC4/cyfitter_cfg.c **** 			{0xBEu, 0x50u},
 365:Generated_Source\PSoC4/cyfitter_cfg.c **** 			{0xBFu, 0x05u},
 366:Generated_Source\PSoC4/cyfitter_cfg.c **** 			{0xC0u, 0x50u},
 367:Generated_Source\PSoC4/cyfitter_cfg.c **** 			{0xC1u, 0x03u},
 368:Generated_Source\PSoC4/cyfitter_cfg.c **** 			{0xC5u, 0x2Cu},
 369:Generated_Source\PSoC4/cyfitter_cfg.c **** 			{0xC6u, 0x23u},
 370:Generated_Source\PSoC4/cyfitter_cfg.c **** 			{0xC7u, 0x5Eu},
 371:Generated_Source\PSoC4/cyfitter_cfg.c **** 			{0xC8u, 0x3Fu},
 372:Generated_Source\PSoC4/cyfitter_cfg.c **** 			{0xC9u, 0xFFu},
 373:Generated_Source\PSoC4/cyfitter_cfg.c **** 			{0xCAu, 0xFFu},
 374:Generated_Source\PSoC4/cyfitter_cfg.c **** 			{0xCBu, 0xFFu},
 375:Generated_Source\PSoC4/cyfitter_cfg.c **** 			{0xCDu, 0xAFu},
 376:Generated_Source\PSoC4/cyfitter_cfg.c **** 			{0xCEu, 0x07u},
 377:Generated_Source\PSoC4/cyfitter_cfg.c **** 			{0xCFu, 0x01u},
 378:Generated_Source\PSoC4/cyfitter_cfg.c **** 			{0xD0u, 0x18u},
 379:Generated_Source\PSoC4/cyfitter_cfg.c **** 			{0xD2u, 0x80u},
 380:Generated_Source\PSoC4/cyfitter_cfg.c **** 			{0xD4u, 0x0Fu},
 381:Generated_Source\PSoC4/cyfitter_cfg.c **** 			{0xD8u, 0x04u},
 382:Generated_Source\PSoC4/cyfitter_cfg.c **** 			{0xD9u, 0x04u},
 383:Generated_Source\PSoC4/cyfitter_cfg.c **** 			{0xDAu, 0x04u},
 384:Generated_Source\PSoC4/cyfitter_cfg.c **** 			{0xDBu, 0x04u},
ARM GAS  C:\Users\Laurent\AppData\Local\Temp\ccp6NsMF.s 			page 15


 385:Generated_Source\PSoC4/cyfitter_cfg.c **** 			{0xDFu, 0x01u},
 386:Generated_Source\PSoC4/cyfitter_cfg.c **** 			{0xE0u, 0x40u},
 387:Generated_Source\PSoC4/cyfitter_cfg.c **** 			{0xE2u, 0x80u},
 388:Generated_Source\PSoC4/cyfitter_cfg.c **** 			{0xE4u, 0x40u},
 389:Generated_Source\PSoC4/cyfitter_cfg.c **** 			{0xE5u, 0x40u},
 390:Generated_Source\PSoC4/cyfitter_cfg.c **** 			{0xE6u, 0x80u},
 391:Generated_Source\PSoC4/cyfitter_cfg.c **** 			{0xE8u, 0x40u},
 392:Generated_Source\PSoC4/cyfitter_cfg.c **** 			{0xEAu, 0x80u},
 393:Generated_Source\PSoC4/cyfitter_cfg.c **** 			{0xECu, 0x40u},
 394:Generated_Source\PSoC4/cyfitter_cfg.c **** 			{0xEDu, 0x20u},
 395:Generated_Source\PSoC4/cyfitter_cfg.c **** 			{0xEEu, 0x80u},
 396:Generated_Source\PSoC4/cyfitter_cfg.c **** 			{0x00u, 0x10u},
 397:Generated_Source\PSoC4/cyfitter_cfg.c **** 			{0x05u, 0x01u},
 398:Generated_Source\PSoC4/cyfitter_cfg.c **** 			{0x0Du, 0x80u},
 399:Generated_Source\PSoC4/cyfitter_cfg.c **** 			{0x0Eu, 0x20u},
 400:Generated_Source\PSoC4/cyfitter_cfg.c **** 			{0x10u, 0x80u},
 401:Generated_Source\PSoC4/cyfitter_cfg.c **** 			{0x16u, 0x02u},
 402:Generated_Source\PSoC4/cyfitter_cfg.c **** 			{0x18u, 0x10u},
 403:Generated_Source\PSoC4/cyfitter_cfg.c **** 			{0x19u, 0x02u},
 404:Generated_Source\PSoC4/cyfitter_cfg.c **** 			{0x1Du, 0x01u},
 405:Generated_Source\PSoC4/cyfitter_cfg.c **** 			{0x1Eu, 0x28u},
 406:Generated_Source\PSoC4/cyfitter_cfg.c **** 			{0x1Fu, 0x40u},
 407:Generated_Source\PSoC4/cyfitter_cfg.c **** 			{0x24u, 0x60u},
 408:Generated_Source\PSoC4/cyfitter_cfg.c **** 			{0x25u, 0x08u},
 409:Generated_Source\PSoC4/cyfitter_cfg.c **** 			{0x26u, 0x82u},
 410:Generated_Source\PSoC4/cyfitter_cfg.c **** 			{0x2Fu, 0x16u},
 411:Generated_Source\PSoC4/cyfitter_cfg.c **** 			{0x36u, 0x80u},
 412:Generated_Source\PSoC4/cyfitter_cfg.c **** 			{0x3Cu, 0x02u},
 413:Generated_Source\PSoC4/cyfitter_cfg.c **** 			{0x40u, 0x40u},
 414:Generated_Source\PSoC4/cyfitter_cfg.c **** 			{0x41u, 0x08u},
 415:Generated_Source\PSoC4/cyfitter_cfg.c **** 			{0x45u, 0x08u},
 416:Generated_Source\PSoC4/cyfitter_cfg.c **** 			{0x4Bu, 0xC0u},
 417:Generated_Source\PSoC4/cyfitter_cfg.c **** 			{0x4Cu, 0x80u},
 418:Generated_Source\PSoC4/cyfitter_cfg.c **** 			{0x4Eu, 0x02u},
 419:Generated_Source\PSoC4/cyfitter_cfg.c **** 			{0x4Fu, 0x04u},
 420:Generated_Source\PSoC4/cyfitter_cfg.c **** 			{0x55u, 0x80u},
 421:Generated_Source\PSoC4/cyfitter_cfg.c **** 			{0x56u, 0x0Au},
 422:Generated_Source\PSoC4/cyfitter_cfg.c **** 			{0x57u, 0x10u},
 423:Generated_Source\PSoC4/cyfitter_cfg.c **** 			{0x59u, 0x80u},
 424:Generated_Source\PSoC4/cyfitter_cfg.c **** 			{0x5Du, 0x02u},
 425:Generated_Source\PSoC4/cyfitter_cfg.c **** 			{0x5Eu, 0x08u},
 426:Generated_Source\PSoC4/cyfitter_cfg.c **** 			{0x5Fu, 0x50u},
 427:Generated_Source\PSoC4/cyfitter_cfg.c **** 			{0x63u, 0x30u},
 428:Generated_Source\PSoC4/cyfitter_cfg.c **** 			{0x66u, 0x08u},
 429:Generated_Source\PSoC4/cyfitter_cfg.c **** 			{0x67u, 0x04u},
 430:Generated_Source\PSoC4/cyfitter_cfg.c **** 			{0x74u, 0x01u},
 431:Generated_Source\PSoC4/cyfitter_cfg.c **** 			{0xC0u, 0x12u},
 432:Generated_Source\PSoC4/cyfitter_cfg.c **** 			{0xC2u, 0xA0u},
 433:Generated_Source\PSoC4/cyfitter_cfg.c **** 			{0xC4u, 0x88u},
 434:Generated_Source\PSoC4/cyfitter_cfg.c **** 			{0xCAu, 0x70u},
 435:Generated_Source\PSoC4/cyfitter_cfg.c **** 			{0xCCu, 0x10u},
 436:Generated_Source\PSoC4/cyfitter_cfg.c **** 			{0xCEu, 0x80u},
 437:Generated_Source\PSoC4/cyfitter_cfg.c **** 			{0xD0u, 0x43u},
 438:Generated_Source\PSoC4/cyfitter_cfg.c **** 			{0xD2u, 0x10u},
 439:Generated_Source\PSoC4/cyfitter_cfg.c **** 			{0xD6u, 0xF8u},
 440:Generated_Source\PSoC4/cyfitter_cfg.c **** 			{0xD8u, 0x60u},
 441:Generated_Source\PSoC4/cyfitter_cfg.c **** 			{0x08u, 0x04u},
ARM GAS  C:\Users\Laurent\AppData\Local\Temp\ccp6NsMF.s 			page 16


 442:Generated_Source\PSoC4/cyfitter_cfg.c **** 			{0x0Au, 0x08u},
 443:Generated_Source\PSoC4/cyfitter_cfg.c **** 			{0x16u, 0x02u},
 444:Generated_Source\PSoC4/cyfitter_cfg.c **** 			{0x1Eu, 0x03u},
 445:Generated_Source\PSoC4/cyfitter_cfg.c **** 			{0x20u, 0x08u},
 446:Generated_Source\PSoC4/cyfitter_cfg.c **** 			{0x22u, 0x14u},
 447:Generated_Source\PSoC4/cyfitter_cfg.c **** 			{0x2Eu, 0x01u},
 448:Generated_Source\PSoC4/cyfitter_cfg.c **** 			{0x30u, 0x10u},
 449:Generated_Source\PSoC4/cyfitter_cfg.c **** 			{0x32u, 0x0Cu},
 450:Generated_Source\PSoC4/cyfitter_cfg.c **** 			{0x34u, 0x01u},
 451:Generated_Source\PSoC4/cyfitter_cfg.c **** 			{0x36u, 0x02u},
 452:Generated_Source\PSoC4/cyfitter_cfg.c **** 			{0x3Eu, 0x54u},
 453:Generated_Source\PSoC4/cyfitter_cfg.c **** 			{0x58u, 0x09u},
 454:Generated_Source\PSoC4/cyfitter_cfg.c **** 			{0x5Bu, 0x04u},
 455:Generated_Source\PSoC4/cyfitter_cfg.c **** 			{0x5Cu, 0x09u},
 456:Generated_Source\PSoC4/cyfitter_cfg.c **** 			{0x5Fu, 0x01u},
 457:Generated_Source\PSoC4/cyfitter_cfg.c **** 			{0x04u, 0x10u},
 458:Generated_Source\PSoC4/cyfitter_cfg.c **** 			{0x0Cu, 0x08u},
 459:Generated_Source\PSoC4/cyfitter_cfg.c **** 			{0x0Du, 0x80u},
 460:Generated_Source\PSoC4/cyfitter_cfg.c **** 			{0x15u, 0x40u},
 461:Generated_Source\PSoC4/cyfitter_cfg.c **** 			{0x17u, 0x02u},
 462:Generated_Source\PSoC4/cyfitter_cfg.c **** 			{0x1Cu, 0x01u},
 463:Generated_Source\PSoC4/cyfitter_cfg.c **** 			{0x1Eu, 0x20u},
 464:Generated_Source\PSoC4/cyfitter_cfg.c **** 			{0x1Fu, 0x12u},
 465:Generated_Source\PSoC4/cyfitter_cfg.c **** 			{0x6Cu, 0x08u},
 466:Generated_Source\PSoC4/cyfitter_cfg.c **** 			{0x6Du, 0x40u},
 467:Generated_Source\PSoC4/cyfitter_cfg.c **** 			{0x7Cu, 0x10u},
 468:Generated_Source\PSoC4/cyfitter_cfg.c **** 			{0x7Fu, 0x04u},
 469:Generated_Source\PSoC4/cyfitter_cfg.c **** 			{0x86u, 0x10u},
 470:Generated_Source\PSoC4/cyfitter_cfg.c **** 			{0x87u, 0x10u},
 471:Generated_Source\PSoC4/cyfitter_cfg.c **** 			{0x89u, 0x80u},
 472:Generated_Source\PSoC4/cyfitter_cfg.c **** 			{0x8Cu, 0x01u},
 473:Generated_Source\PSoC4/cyfitter_cfg.c **** 			{0x93u, 0x08u},
 474:Generated_Source\PSoC4/cyfitter_cfg.c **** 			{0x9Bu, 0x02u},
 475:Generated_Source\PSoC4/cyfitter_cfg.c **** 			{0xA7u, 0x02u},
 476:Generated_Source\PSoC4/cyfitter_cfg.c **** 			{0xA8u, 0x10u},
 477:Generated_Source\PSoC4/cyfitter_cfg.c **** 			{0xA9u, 0x80u},
 478:Generated_Source\PSoC4/cyfitter_cfg.c **** 			{0xAFu, 0x16u},
 479:Generated_Source\PSoC4/cyfitter_cfg.c **** 			{0xC0u, 0x40u},
 480:Generated_Source\PSoC4/cyfitter_cfg.c **** 			{0xC2u, 0xA0u},
 481:Generated_Source\PSoC4/cyfitter_cfg.c **** 			{0xC4u, 0x90u},
 482:Generated_Source\PSoC4/cyfitter_cfg.c **** 			{0xDEu, 0x20u},
 483:Generated_Source\PSoC4/cyfitter_cfg.c **** 			{0xE4u, 0x08u},
 484:Generated_Source\PSoC4/cyfitter_cfg.c **** 			{0xE6u, 0x90u},
 485:Generated_Source\PSoC4/cyfitter_cfg.c **** 			{0x0Au, 0x08u},
 486:Generated_Source\PSoC4/cyfitter_cfg.c **** 			{0x0Fu, 0x40u},
 487:Generated_Source\PSoC4/cyfitter_cfg.c **** 			{0xC2u, 0x60u},
 488:Generated_Source\PSoC4/cyfitter_cfg.c **** 			{0x21u, 0x40u},
 489:Generated_Source\PSoC4/cyfitter_cfg.c **** 			{0x41u, 0x40u},
 490:Generated_Source\PSoC4/cyfitter_cfg.c **** 			{0x5Du, 0x80u},
 491:Generated_Source\PSoC4/cyfitter_cfg.c **** 			{0x64u, 0x10u},
 492:Generated_Source\PSoC4/cyfitter_cfg.c **** 			{0x66u, 0x80u},
 493:Generated_Source\PSoC4/cyfitter_cfg.c **** 			{0x84u, 0x10u},
 494:Generated_Source\PSoC4/cyfitter_cfg.c **** 			{0x89u, 0x80u},
 495:Generated_Source\PSoC4/cyfitter_cfg.c **** 			{0x8Eu, 0x80u},
 496:Generated_Source\PSoC4/cyfitter_cfg.c **** 			{0xAEu, 0x04u},
 497:Generated_Source\PSoC4/cyfitter_cfg.c **** 			{0xAFu, 0x40u},
 498:Generated_Source\PSoC4/cyfitter_cfg.c **** 			{0xC8u, 0x10u},
ARM GAS  C:\Users\Laurent\AppData\Local\Temp\ccp6NsMF.s 			page 17


 499:Generated_Source\PSoC4/cyfitter_cfg.c **** 			{0xD0u, 0x10u},
 500:Generated_Source\PSoC4/cyfitter_cfg.c **** 			{0xD6u, 0xA0u},
 501:Generated_Source\PSoC4/cyfitter_cfg.c **** 			{0xD8u, 0x80u},
 502:Generated_Source\PSoC4/cyfitter_cfg.c **** 			{0xE6u, 0x40u},
 503:Generated_Source\PSoC4/cyfitter_cfg.c **** 			{0xECu, 0x50u},
 504:Generated_Source\PSoC4/cyfitter_cfg.c **** 			{0x19u, 0xA0u},
 505:Generated_Source\PSoC4/cyfitter_cfg.c **** 			{0x7Bu, 0x20u},
 506:Generated_Source\PSoC4/cyfitter_cfg.c **** 			{0x87u, 0x20u},
 507:Generated_Source\PSoC4/cyfitter_cfg.c **** 			{0x89u, 0xA0u},
 508:Generated_Source\PSoC4/cyfitter_cfg.c **** 			{0xC6u, 0x02u},
 509:Generated_Source\PSoC4/cyfitter_cfg.c **** 			{0xDEu, 0x02u},
 510:Generated_Source\PSoC4/cyfitter_cfg.c **** 			{0xE2u, 0x04u},
 511:Generated_Source\PSoC4/cyfitter_cfg.c **** 			{0xE6u, 0x01u},
 512:Generated_Source\PSoC4/cyfitter_cfg.c **** 			{0x10u, 0x01u},
 513:Generated_Source\PSoC4/cyfitter_cfg.c **** 			{0x11u, 0x01u},
 514:Generated_Source\PSoC4/cyfitter_cfg.c **** 		};
 515:Generated_Source\PSoC4/cyfitter_cfg.c **** 
 516:Generated_Source\PSoC4/cyfitter_cfg.c **** 
 517:Generated_Source\PSoC4/cyfitter_cfg.c **** 
 518:Generated_Source\PSoC4/cyfitter_cfg.c **** 		CYPACKED typedef struct {
 519:Generated_Source\PSoC4/cyfitter_cfg.c **** 			void CYFAR *address;
 520:Generated_Source\PSoC4/cyfitter_cfg.c **** 			uint16 size;
 521:Generated_Source\PSoC4/cyfitter_cfg.c **** 		} CYPACKED_ATTR cfg_memset_t;
 522:Generated_Source\PSoC4/cyfitter_cfg.c **** 
 523:Generated_Source\PSoC4/cyfitter_cfg.c **** 		static const cfg_memset_t CYCODE cfg_memset_list[] = {
 524:Generated_Source\PSoC4/cyfitter_cfg.c **** 			/* address, size */
 525:Generated_Source\PSoC4/cyfitter_cfg.c **** 			{(void CYFAR *)(CYDEV_UDB_P0_U0_BASE), 1024u},
 526:Generated_Source\PSoC4/cyfitter_cfg.c **** 			{(void CYFAR *)(CYDEV_UDB_DSI0_BASE), 1024u},
 527:Generated_Source\PSoC4/cyfitter_cfg.c **** 		};
 528:Generated_Source\PSoC4/cyfitter_cfg.c **** 
 529:Generated_Source\PSoC4/cyfitter_cfg.c **** 		uint8 CYDATA i;
 530:Generated_Source\PSoC4/cyfitter_cfg.c **** 
 531:Generated_Source\PSoC4/cyfitter_cfg.c **** 		/* Zero out critical memory blocks before beginning configuration */
 532:Generated_Source\PSoC4/cyfitter_cfg.c **** 		for (i = 0u; i < (sizeof(cfg_memset_list)/sizeof(cfg_memset_list[0])); i++)
 412              		.loc 1 532 0
 413 00dc FB1D     		adds	r3, r7, #7
 414 00de 0022     		movs	r2, #0
 415 00e0 1A70     		strb	r2, [r3]
 416 00e2 22E0     		b	.L14
 417              	.L15:
 418              	.LBB4:
 533:Generated_Source\PSoC4/cyfitter_cfg.c **** 		{
 534:Generated_Source\PSoC4/cyfitter_cfg.c **** 			const cfg_memset_t CYCODE * CYDATA ms = &cfg_memset_list[i];
 419              		.loc 1 534 0 discriminator 3
 420 00e4 FB1D     		adds	r3, r7, #7
 421 00e6 1A78     		ldrb	r2, [r3]
 422 00e8 1300     		movs	r3, r2
 423 00ea 5B00     		lsls	r3, r3, #1
 424 00ec 9B18     		adds	r3, r3, r2
 425 00ee 5B00     		lsls	r3, r3, #1
 426 00f0 404A     		ldr	r2, .L16
 427 00f2 9B18     		adds	r3, r3, r2
 428 00f4 3B60     		str	r3, [r7]
 535:Generated_Source\PSoC4/cyfitter_cfg.c **** 			CYMEMZERO(ms->address, (size_t)(uint32)(ms->size));
 429              		.loc 1 535 0 discriminator 3
 430 00f6 3B68     		ldr	r3, [r7]
 431 00f8 1A78     		ldrb	r2, [r3]
ARM GAS  C:\Users\Laurent\AppData\Local\Temp\ccp6NsMF.s 			page 18


 432 00fa 5978     		ldrb	r1, [r3, #1]
 433 00fc 0902     		lsls	r1, r1, #8
 434 00fe 0A43     		orrs	r2, r1
 435 0100 9978     		ldrb	r1, [r3, #2]
 436 0102 0904     		lsls	r1, r1, #16
 437 0104 0A43     		orrs	r2, r1
 438 0106 DB78     		ldrb	r3, [r3, #3]
 439 0108 1B06     		lsls	r3, r3, #24
 440 010a 1343     		orrs	r3, r2
 441 010c 1800     		movs	r0, r3
 442 010e 3B68     		ldr	r3, [r7]
 443 0110 1A79     		ldrb	r2, [r3, #4]
 444 0112 5B79     		ldrb	r3, [r3, #5]
 445 0114 1B02     		lsls	r3, r3, #8
 446 0116 1343     		orrs	r3, r2
 447 0118 9BB2     		uxth	r3, r3
 448 011a 1900     		movs	r1, r3
 449 011c FFF7FEFF 		bl	CYMEMZERO
 450              	.LBE4:
 532:Generated_Source\PSoC4/cyfitter_cfg.c **** 		{
 451              		.loc 1 532 0 discriminator 3
 452 0120 FB1D     		adds	r3, r7, #7
 453 0122 1A78     		ldrb	r2, [r3]
 454 0124 FB1D     		adds	r3, r7, #7
 455 0126 0132     		adds	r2, r2, #1
 456 0128 1A70     		strb	r2, [r3]
 457              	.L14:
 532:Generated_Source\PSoC4/cyfitter_cfg.c **** 		{
 458              		.loc 1 532 0 is_stmt 0 discriminator 1
 459 012a FB1D     		adds	r3, r7, #7
 460 012c 1B78     		ldrb	r3, [r3]
 461 012e 012B     		cmp	r3, #1
 462 0130 D8D9     		bls	.L15
 536:Generated_Source\PSoC4/cyfitter_cfg.c **** 		}
 537:Generated_Source\PSoC4/cyfitter_cfg.c **** 
 538:Generated_Source\PSoC4/cyfitter_cfg.c **** 		cfg_write_bytes32(cy_cfg_addr_table, cy_cfg_data_table);
 463              		.loc 1 538 0 is_stmt 1
 464 0132 314A     		ldr	r2, .L16+4
 465 0134 314B     		ldr	r3, .L16+8
 466 0136 1100     		movs	r1, r2
 467 0138 1800     		movs	r0, r3
 468 013a FFF7FEFF 		bl	cfg_write_bytes32
 539:Generated_Source\PSoC4/cyfitter_cfg.c **** 
 540:Generated_Source\PSoC4/cyfitter_cfg.c **** 		/* Perform normal device configuration. Order is not critical for these items. */
 541:Generated_Source\PSoC4/cyfitter_cfg.c **** 		CY_SET_REG16((void *)(CYREG_UDB_BCTL0_DRV), 0x0100u);
 469              		.loc 1 541 0
 470 013e 304B     		ldr	r3, .L16+12
 471 0140 8022     		movs	r2, #128
 472 0142 5200     		lsls	r2, r2, #1
 473 0144 1A80     		strh	r2, [r3]
 542:Generated_Source\PSoC4/cyfitter_cfg.c **** 		CY_SET_REG8((void *)(CYREG_UDB_BCTL0_DRV + 0x2u), 0x01u);
 474              		.loc 1 542 0
 475 0146 2F4B     		ldr	r3, .L16+16
 476 0148 0122     		movs	r2, #1
 477 014a 1A70     		strb	r2, [r3]
 543:Generated_Source\PSoC4/cyfitter_cfg.c **** 
 544:Generated_Source\PSoC4/cyfitter_cfg.c **** 		/* HSIOM Starting address: CYDEV_HSIOM_BASE */
ARM GAS  C:\Users\Laurent\AppData\Local\Temp\ccp6NsMF.s 			page 19


 545:Generated_Source\PSoC4/cyfitter_cfg.c **** 		CY_SET_REG32((void *)(CYREG_HSIOM_PORT_SEL1), 0x00333000u);
 478              		.loc 1 545 0
 479 014c 2E4B     		ldr	r3, .L16+20
 480 014e 2F4A     		ldr	r2, .L16+24
 481 0150 1A60     		str	r2, [r3]
 546:Generated_Source\PSoC4/cyfitter_cfg.c **** 		CY_SET_REG32((void *)(CYREG_HSIOM_PORT_SEL3), 0x0000EE00u);
 482              		.loc 1 546 0
 483 0152 2F4B     		ldr	r3, .L16+28
 484 0154 EE22     		movs	r2, #238
 485 0156 1202     		lsls	r2, r2, #8
 486 0158 1A60     		str	r2, [r3]
 547:Generated_Source\PSoC4/cyfitter_cfg.c **** 		CY_SET_REG32((void *)(CYREG_HSIOM_PORT_SEL4), 0x00000099u);
 487              		.loc 1 547 0
 488 015a 2E4B     		ldr	r3, .L16+32
 489 015c 9922     		movs	r2, #153
 490 015e 1A60     		str	r2, [r3]
 548:Generated_Source\PSoC4/cyfitter_cfg.c **** 
 549:Generated_Source\PSoC4/cyfitter_cfg.c **** 		/* UDB_PA_0 Starting address: CYDEV_UDB_PA0_BASE */
 550:Generated_Source\PSoC4/cyfitter_cfg.c **** 		CY_SET_REG32((void *)(CYDEV_UDB_PA0_BASE), 0x00990004u);
 491              		.loc 1 550 0
 492 0160 2D4B     		ldr	r3, .L16+36
 493 0162 2E4A     		ldr	r2, .L16+40
 494 0164 1A60     		str	r2, [r3]
 551:Generated_Source\PSoC4/cyfitter_cfg.c **** 		CY_SET_REG32((void *)(CYREG_UDB_PA0_CFG4), 0x28000000u);
 495              		.loc 1 551 0
 496 0166 2E4B     		ldr	r3, .L16+44
 497 0168 A022     		movs	r2, #160
 498 016a 9205     		lsls	r2, r2, #22
 499 016c 1A60     		str	r2, [r3]
 552:Generated_Source\PSoC4/cyfitter_cfg.c **** 
 553:Generated_Source\PSoC4/cyfitter_cfg.c **** 		/* UDB_PA_1 Starting address: CYDEV_UDB_PA1_BASE */
 554:Generated_Source\PSoC4/cyfitter_cfg.c **** 		CY_SET_REG32((void *)(CYDEV_UDB_PA1_BASE), 0x00990000u);
 500              		.loc 1 554 0
 501 016e 2D4B     		ldr	r3, .L16+48
 502 0170 9922     		movs	r2, #153
 503 0172 1204     		lsls	r2, r2, #16
 504 0174 1A60     		str	r2, [r3]
 555:Generated_Source\PSoC4/cyfitter_cfg.c **** 		CY_SET_REG32((void *)(CYREG_UDB_PA1_CFG8), 0x0DC00000u);
 505              		.loc 1 555 0
 506 0176 2C4B     		ldr	r3, .L16+52
 507 0178 DC22     		movs	r2, #220
 508 017a 1205     		lsls	r2, r2, #20
 509 017c 1A60     		str	r2, [r3]
 556:Generated_Source\PSoC4/cyfitter_cfg.c **** 
 557:Generated_Source\PSoC4/cyfitter_cfg.c **** 		/* UDB_PA_3 Starting address: CYDEV_UDB_PA3_BASE */
 558:Generated_Source\PSoC4/cyfitter_cfg.c **** 		CY_SET_REG32((void *)(CYDEV_UDB_PA3_BASE), 0x00990000u);
 510              		.loc 1 558 0
 511 017e 2B4B     		ldr	r3, .L16+56
 512 0180 9922     		movs	r2, #153
 513 0182 1204     		lsls	r2, r2, #16
 514 0184 1A60     		str	r2, [r3]
 559:Generated_Source\PSoC4/cyfitter_cfg.c **** 
 560:Generated_Source\PSoC4/cyfitter_cfg.c **** 		/* TCPWM_CNT1 Starting address: CYDEV_TCPWM_CNT1_TR_CTRL0 */
 561:Generated_Source\PSoC4/cyfitter_cfg.c **** 		CY_SET_REG32((void *)(CYREG_TCPWM_CNT1_TR_CTRL0), 0x00000A8Au);
 515              		.loc 1 561 0
 516 0186 2A4B     		ldr	r3, .L16+60
 517 0188 2A4A     		ldr	r2, .L16+64
ARM GAS  C:\Users\Laurent\AppData\Local\Temp\ccp6NsMF.s 			page 20


 518 018a 1A60     		str	r2, [r3]
 562:Generated_Source\PSoC4/cyfitter_cfg.c **** 
 563:Generated_Source\PSoC4/cyfitter_cfg.c **** 		/* Enable UDB array and digital routing */
 564:Generated_Source\PSoC4/cyfitter_cfg.c **** 		CY_SET_XTND_REG8((void *)CYREG_UDB_UDBIF_WAIT_CFG, (uint8)((CY_GET_XTND_REG8((void *)CYREG_UDB_UD
 519              		.loc 1 564 0
 520 018c 2A4A     		ldr	r2, .L16+68
 521 018e 2A4B     		ldr	r3, .L16+68
 522 0190 1B78     		ldrb	r3, [r3]
 523 0192 DBB2     		uxtb	r3, r3
 524 0194 3C21     		movs	r1, #60
 525 0196 8B43     		bics	r3, r1
 526 0198 DBB2     		uxtb	r3, r3
 527 019a 1421     		movs	r1, #20
 528 019c 0B43     		orrs	r3, r1
 529 019e DBB2     		uxtb	r3, r3
 530 01a0 1370     		strb	r3, [r2]
 565:Generated_Source\PSoC4/cyfitter_cfg.c **** 		CY_SET_XTND_REG8((void *)CYREG_UDB_UDBIF_BANK_CTL, (uint8)(CY_GET_XTND_REG8((void *)CYREG_UDB_UDB
 531              		.loc 1 565 0
 532 01a2 264A     		ldr	r2, .L16+72
 533 01a4 254B     		ldr	r3, .L16+72
 534 01a6 1B78     		ldrb	r3, [r3]
 535 01a8 DBB2     		uxtb	r3, r3
 536 01aa 1621     		movs	r1, #22
 537 01ac 0B43     		orrs	r3, r1
 538 01ae DBB2     		uxtb	r3, r3
 539 01b0 1370     		strb	r3, [r2]
 540              	.LBE3:
 566:Generated_Source\PSoC4/cyfitter_cfg.c **** 	}
 567:Generated_Source\PSoC4/cyfitter_cfg.c **** 
 568:Generated_Source\PSoC4/cyfitter_cfg.c **** 	/* Perform second pass device configuration. These items must be configured in specific order afte
 569:Generated_Source\PSoC4/cyfitter_cfg.c **** 	/* IOPINS0_0 Starting address: CYDEV_PRT0_BASE */
 570:Generated_Source\PSoC4/cyfitter_cfg.c **** 	CY_SET_REG32((void *)(CYDEV_PRT0_BASE), 0x00000071u);
 541              		.loc 1 570 0
 542 01b2 234B     		ldr	r3, .L16+76
 543 01b4 7122     		movs	r2, #113
 544 01b6 1A60     		str	r2, [r3]
 571:Generated_Source\PSoC4/cyfitter_cfg.c **** 	CY_SET_REG32((void *)(CYREG_PRT0_PC), 0x000920DAu);
 545              		.loc 1 571 0
 546 01b8 224B     		ldr	r3, .L16+80
 547 01ba 234A     		ldr	r2, .L16+84
 548 01bc 1A60     		str	r2, [r3]
 572:Generated_Source\PSoC4/cyfitter_cfg.c **** 
 573:Generated_Source\PSoC4/cyfitter_cfg.c **** 	/* IOPINS0_1 Starting address: CYDEV_PRT1_BASE */
 574:Generated_Source\PSoC4/cyfitter_cfg.c **** 	CY_SET_REG32((void *)(CYDEV_PRT1_BASE), 0x00000038u);
 549              		.loc 1 574 0
 550 01be 234B     		ldr	r3, .L16+88
 551 01c0 3822     		movs	r2, #56
 552 01c2 1A60     		str	r2, [r3]
 575:Generated_Source\PSoC4/cyfitter_cfg.c **** 	CY_SET_REG32((void *)(CYREG_PRT1_PC), 0x001B6C00u);
 553              		.loc 1 575 0
 554 01c4 224B     		ldr	r3, .L16+92
 555 01c6 234A     		ldr	r2, .L16+96
 556 01c8 1A60     		str	r2, [r3]
 576:Generated_Source\PSoC4/cyfitter_cfg.c **** 
 577:Generated_Source\PSoC4/cyfitter_cfg.c **** 	/* IOPINS0_3 Starting address: CYDEV_PRT3_BASE */
 578:Generated_Source\PSoC4/cyfitter_cfg.c **** 	CY_SET_REG32((void *)(CYREG_PRT3_PC), 0x00000D80u);
 557              		.loc 1 578 0
ARM GAS  C:\Users\Laurent\AppData\Local\Temp\ccp6NsMF.s 			page 21


 558 01ca 234B     		ldr	r3, .L16+100
 559 01cc D822     		movs	r2, #216
 560 01ce 1201     		lsls	r2, r2, #4
 561 01d0 1A60     		str	r2, [r3]
 579:Generated_Source\PSoC4/cyfitter_cfg.c **** 
 580:Generated_Source\PSoC4/cyfitter_cfg.c **** 	/* IOPINS0_4 Starting address: CYDEV_PRT4_BASE */
 581:Generated_Source\PSoC4/cyfitter_cfg.c **** 	CY_SET_REG32((void *)(CYDEV_PRT4_BASE), 0x00000002u);
 562              		.loc 1 581 0
 563 01d2 224B     		ldr	r3, .L16+104
 564 01d4 0222     		movs	r2, #2
 565 01d6 1A60     		str	r2, [r3]
 582:Generated_Source\PSoC4/cyfitter_cfg.c **** 	CY_SET_REG32((void *)(CYREG_PRT4_PC), 0x00000031u);
 566              		.loc 1 582 0
 567 01d8 214B     		ldr	r3, .L16+108
 568 01da 3122     		movs	r2, #49
 569 01dc 1A60     		str	r2, [r3]
 583:Generated_Source\PSoC4/cyfitter_cfg.c **** 	CY_SET_REG32((void *)(CYREG_PRT4_PC2), 0x00000002u);
 570              		.loc 1 583 0
 571 01de 214B     		ldr	r3, .L16+112
 572 01e0 0222     		movs	r2, #2
 573 01e2 1A60     		str	r2, [r3]
 584:Generated_Source\PSoC4/cyfitter_cfg.c **** 
 585:Generated_Source\PSoC4/cyfitter_cfg.c **** 
 586:Generated_Source\PSoC4/cyfitter_cfg.c **** 	/* Setup clocks based on selections from Clock DWR */
 587:Generated_Source\PSoC4/cyfitter_cfg.c **** 	ClockSetup();
 574              		.loc 1 587 0
 575 01e4 FFF70CFF 		bl	ClockSetup
 588:Generated_Source\PSoC4/cyfitter_cfg.c **** 
 589:Generated_Source\PSoC4/cyfitter_cfg.c **** 	/* Perform basic analog initialization to defaults */
 590:Generated_Source\PSoC4/cyfitter_cfg.c **** 	AnalogSetDefault();
 576              		.loc 1 590 0
 577 01e8 FFF7FEFF 		bl	AnalogSetDefault
 591:Generated_Source\PSoC4/cyfitter_cfg.c **** 
 592:Generated_Source\PSoC4/cyfitter_cfg.c **** }
 578              		.loc 1 592 0
 579 01ec C046     		nop
 580 01ee BD46     		mov	sp, r7
 581 01f0 02B0     		add	sp, sp, #8
 582              		@ sp needed
 583 01f2 80BD     		pop	{r7, pc}
 584              	.L17:
 585              		.align	2
 586              	.L16:
 587 01f4 00000000 		.word	cfg_memset_list.4870
 588 01f8 30000000 		.word	cy_cfg_data_table.4865
 589 01fc 0C000000 		.word	cy_cfg_addr_table.4864
 590 0200 00600F40 		.word	1074749440
 591 0204 02600F40 		.word	1074749442
 592 0208 04000140 		.word	1073807364
 593 020c 00303300 		.word	3354624
 594 0210 0C000140 		.word	1073807372
 595 0214 10000140 		.word	1073807376
 596 0218 00500F40 		.word	1074745344
 597 021c 04009900 		.word	10027012
 598 0220 04500F40 		.word	1074745348
 599 0224 10500F40 		.word	1074745360
 600 0228 18500F40 		.word	1074745368
ARM GAS  C:\Users\Laurent\AppData\Local\Temp\ccp6NsMF.s 			page 22


 601 022c 30500F40 		.word	1074745392
 602 0230 60010540 		.word	1074069856
 603 0234 8A0A0000 		.word	2698
 604 0238 01700F40 		.word	1074753537
 605 023c 00700F40 		.word	1074753536
 606 0240 00000440 		.word	1074003968
 607 0244 08000440 		.word	1074003976
 608 0248 DA200900 		.word	598234
 609 024c 00010440 		.word	1074004224
 610 0250 08010440 		.word	1074004232
 611 0254 006C1B00 		.word	1797120
 612 0258 08030440 		.word	1074004744
 613 025c 00040440 		.word	1074004992
 614 0260 08040440 		.word	1074005000
 615 0264 18040440 		.word	1074005016
 616              		.cfi_endproc
 617              	.LFE6:
 618              		.size	cyfitter_cfg, .-cyfitter_cfg
 619              		.section	.rodata
 620              		.align	2
 621              		.type	cfg_memset_list.4870, %object
 622              		.size	cfg_memset_list.4870, 12
 623              	cfg_memset_list.4870:
 624 0000 00300F40 		.word	1074737152
 625 0004 0004     		.short	1024
 626 0006 00400F40 		.4byte	1074741248
 627 000a 0004     		.short	1024
 628              		.align	2
 629              		.type	cy_cfg_addr_table.4864, %object
 630              		.size	cy_cfg_addr_table.4864, 36
 631              	cy_cfg_addr_table.4864:
 632 000c 01000F40 		.word	1074724865
 633 0010 4D300F40 		.word	1074737229
 634 0014 2D310F40 		.word	1074737453
 635 0018 10320F40 		.word	1074737680
 636 001c 1C330F40 		.word	1074737948
 637 0020 03400F40 		.word	1074741251
 638 0024 10410F40 		.word	1074741520
 639 0028 08430F40 		.word	1074742024
 640 002c 02600F40 		.word	1074749442
 641              		.align	2
 642              		.type	cy_cfg_data_table.4865, %object
 643              		.size	cy_cfg_data_table.4865, 392
 644              	cy_cfg_data_table.4865:
 645 0030 81       		.byte	-127
 646 0031 6F       		.byte	111
 647 0032 08       		.byte	8
 648 0033 01       		.byte	1
 649 0034 22       		.byte	34
 650 0035 03       		.byte	3
 651 0036 30       		.byte	48
 652 0037 01       		.byte	1
 653 0038 32       		.byte	50
 654 0039 02       		.byte	2
 655 003a 3E       		.byte	62
 656 003b 01       		.byte	1
 657 003c 40       		.byte	64
ARM GAS  C:\Users\Laurent\AppData\Local\Temp\ccp6NsMF.s 			page 23


 658 003d 40       		.byte	64
 659 003e 41       		.byte	65
 660 003f 03       		.byte	3
 661 0040 49       		.byte	73
 662 0041 FF       		.byte	-1
 663 0042 4A       		.byte	74
 664 0043 FF       		.byte	-1
 665 0044 4B       		.byte	75
 666 0045 FF       		.byte	-1
 667 0046 4D       		.byte	77
 668 0047 A0       		.byte	-96
 669 0048 4F       		.byte	79
 670 0049 01       		.byte	1
 671 004a 50       		.byte	80
 672 004b 18       		.byte	24
 673 004c 58       		.byte	88
 674 004d 04       		.byte	4
 675 004e 5A       		.byte	90
 676 004f 04       		.byte	4
 677 0050 5B       		.byte	91
 678 0051 04       		.byte	4
 679 0052 5F       		.byte	95
 680 0053 01       		.byte	1
 681 0054 60       		.byte	96
 682 0055 40       		.byte	64
 683 0056 62       		.byte	98
 684 0057 80       		.byte	-128
 685 0058 64       		.byte	100
 686 0059 40       		.byte	64
 687 005a 65       		.byte	101
 688 005b 40       		.byte	64
 689 005c 66       		.byte	102
 690 005d 80       		.byte	-128
 691 005e 68       		.byte	104
 692 005f 40       		.byte	64
 693 0060 6A       		.byte	106
 694 0061 80       		.byte	-128
 695 0062 6C       		.byte	108
 696 0063 40       		.byte	64
 697 0064 6D       		.byte	109
 698 0065 20       		.byte	32
 699 0066 6E       		.byte	110
 700 0067 80       		.byte	-128
 701 0068 80       		.byte	-128
 702 0069 01       		.byte	1
 703 006a 83       		.byte	-125
 704 006b 03       		.byte	3
 705 006c 94       		.byte	-108
 706 006d 04       		.byte	4
 707 006e 9D       		.byte	-99
 708 006f 03       		.byte	3
 709 0070 9E       		.byte	-98
 710 0071 0C       		.byte	12
 711 0072 A5       		.byte	-91
 712 0073 0A       		.byte	10
 713 0074 A7       		.byte	-89
 714 0075 05       		.byte	5
ARM GAS  C:\Users\Laurent\AppData\Local\Temp\ccp6NsMF.s 			page 24


 715 0076 A9       		.byte	-87
 716 0077 05       		.byte	5
 717 0078 AB       		.byte	-85
 718 0079 0A       		.byte	10
 719 007a AD       		.byte	-83
 720 007b 10       		.byte	16
 721 007c AE       		.byte	-82
 722 007d 03       		.byte	3
 723 007e B0       		.byte	-80
 724 007f 02       		.byte	2
 725 0080 B1       		.byte	-79
 726 0081 03       		.byte	3
 727 0082 B2       		.byte	-78
 728 0083 08       		.byte	8
 729 0084 B3       		.byte	-77
 730 0085 10       		.byte	16
 731 0086 B4       		.byte	-76
 732 0087 04       		.byte	4
 733 0088 B6       		.byte	-74
 734 0089 01       		.byte	1
 735 008a B7       		.byte	-73
 736 008b 0C       		.byte	12
 737 008c BE       		.byte	-66
 738 008d 50       		.byte	80
 739 008e BF       		.byte	-65
 740 008f 05       		.byte	5
 741 0090 C0       		.byte	-64
 742 0091 50       		.byte	80
 743 0092 C1       		.byte	-63
 744 0093 03       		.byte	3
 745 0094 C5       		.byte	-59
 746 0095 2C       		.byte	44
 747 0096 C6       		.byte	-58
 748 0097 23       		.byte	35
 749 0098 C7       		.byte	-57
 750 0099 5E       		.byte	94
 751 009a C8       		.byte	-56
 752 009b 3F       		.byte	63
 753 009c C9       		.byte	-55
 754 009d FF       		.byte	-1
 755 009e CA       		.byte	-54
 756 009f FF       		.byte	-1
 757 00a0 CB       		.byte	-53
 758 00a1 FF       		.byte	-1
 759 00a2 CD       		.byte	-51
 760 00a3 AF       		.byte	-81
 761 00a4 CE       		.byte	-50
 762 00a5 07       		.byte	7
 763 00a6 CF       		.byte	-49
 764 00a7 01       		.byte	1
 765 00a8 D0       		.byte	-48
 766 00a9 18       		.byte	24
 767 00aa D2       		.byte	-46
 768 00ab 80       		.byte	-128
 769 00ac D4       		.byte	-44
 770 00ad 0F       		.byte	15
 771 00ae D8       		.byte	-40
ARM GAS  C:\Users\Laurent\AppData\Local\Temp\ccp6NsMF.s 			page 25


 772 00af 04       		.byte	4
 773 00b0 D9       		.byte	-39
 774 00b1 04       		.byte	4
 775 00b2 DA       		.byte	-38
 776 00b3 04       		.byte	4
 777 00b4 DB       		.byte	-37
 778 00b5 04       		.byte	4
 779 00b6 DF       		.byte	-33
 780 00b7 01       		.byte	1
 781 00b8 E0       		.byte	-32
 782 00b9 40       		.byte	64
 783 00ba E2       		.byte	-30
 784 00bb 80       		.byte	-128
 785 00bc E4       		.byte	-28
 786 00bd 40       		.byte	64
 787 00be E5       		.byte	-27
 788 00bf 40       		.byte	64
 789 00c0 E6       		.byte	-26
 790 00c1 80       		.byte	-128
 791 00c2 E8       		.byte	-24
 792 00c3 40       		.byte	64
 793 00c4 EA       		.byte	-22
 794 00c5 80       		.byte	-128
 795 00c6 EC       		.byte	-20
 796 00c7 40       		.byte	64
 797 00c8 ED       		.byte	-19
 798 00c9 20       		.byte	32
 799 00ca EE       		.byte	-18
 800 00cb 80       		.byte	-128
 801 00cc 00       		.byte	0
 802 00cd 10       		.byte	16
 803 00ce 05       		.byte	5
 804 00cf 01       		.byte	1
 805 00d0 0D       		.byte	13
 806 00d1 80       		.byte	-128
 807 00d2 0E       		.byte	14
 808 00d3 20       		.byte	32
 809 00d4 10       		.byte	16
 810 00d5 80       		.byte	-128
 811 00d6 16       		.byte	22
 812 00d7 02       		.byte	2
 813 00d8 18       		.byte	24
 814 00d9 10       		.byte	16
 815 00da 19       		.byte	25
 816 00db 02       		.byte	2
 817 00dc 1D       		.byte	29
 818 00dd 01       		.byte	1
 819 00de 1E       		.byte	30
 820 00df 28       		.byte	40
 821 00e0 1F       		.byte	31
 822 00e1 40       		.byte	64
 823 00e2 24       		.byte	36
 824 00e3 60       		.byte	96
 825 00e4 25       		.byte	37
 826 00e5 08       		.byte	8
 827 00e6 26       		.byte	38
 828 00e7 82       		.byte	-126
ARM GAS  C:\Users\Laurent\AppData\Local\Temp\ccp6NsMF.s 			page 26


 829 00e8 2F       		.byte	47
 830 00e9 16       		.byte	22
 831 00ea 36       		.byte	54
 832 00eb 80       		.byte	-128
 833 00ec 3C       		.byte	60
 834 00ed 02       		.byte	2
 835 00ee 40       		.byte	64
 836 00ef 40       		.byte	64
 837 00f0 41       		.byte	65
 838 00f1 08       		.byte	8
 839 00f2 45       		.byte	69
 840 00f3 08       		.byte	8
 841 00f4 4B       		.byte	75
 842 00f5 C0       		.byte	-64
 843 00f6 4C       		.byte	76
 844 00f7 80       		.byte	-128
 845 00f8 4E       		.byte	78
 846 00f9 02       		.byte	2
 847 00fa 4F       		.byte	79
 848 00fb 04       		.byte	4
 849 00fc 55       		.byte	85
 850 00fd 80       		.byte	-128
 851 00fe 56       		.byte	86
 852 00ff 0A       		.byte	10
 853 0100 57       		.byte	87
 854 0101 10       		.byte	16
 855 0102 59       		.byte	89
 856 0103 80       		.byte	-128
 857 0104 5D       		.byte	93
 858 0105 02       		.byte	2
 859 0106 5E       		.byte	94
 860 0107 08       		.byte	8
 861 0108 5F       		.byte	95
 862 0109 50       		.byte	80
 863 010a 63       		.byte	99
 864 010b 30       		.byte	48
 865 010c 66       		.byte	102
 866 010d 08       		.byte	8
 867 010e 67       		.byte	103
 868 010f 04       		.byte	4
 869 0110 74       		.byte	116
 870 0111 01       		.byte	1
 871 0112 C0       		.byte	-64
 872 0113 12       		.byte	18
 873 0114 C2       		.byte	-62
 874 0115 A0       		.byte	-96
 875 0116 C4       		.byte	-60
 876 0117 88       		.byte	-120
 877 0118 CA       		.byte	-54
 878 0119 70       		.byte	112
 879 011a CC       		.byte	-52
 880 011b 10       		.byte	16
 881 011c CE       		.byte	-50
 882 011d 80       		.byte	-128
 883 011e D0       		.byte	-48
 884 011f 43       		.byte	67
 885 0120 D2       		.byte	-46
ARM GAS  C:\Users\Laurent\AppData\Local\Temp\ccp6NsMF.s 			page 27


 886 0121 10       		.byte	16
 887 0122 D6       		.byte	-42
 888 0123 F8       		.byte	-8
 889 0124 D8       		.byte	-40
 890 0125 60       		.byte	96
 891 0126 08       		.byte	8
 892 0127 04       		.byte	4
 893 0128 0A       		.byte	10
 894 0129 08       		.byte	8
 895 012a 16       		.byte	22
 896 012b 02       		.byte	2
 897 012c 1E       		.byte	30
 898 012d 03       		.byte	3
 899 012e 20       		.byte	32
 900 012f 08       		.byte	8
 901 0130 22       		.byte	34
 902 0131 14       		.byte	20
 903 0132 2E       		.byte	46
 904 0133 01       		.byte	1
 905 0134 30       		.byte	48
 906 0135 10       		.byte	16
 907 0136 32       		.byte	50
 908 0137 0C       		.byte	12
 909 0138 34       		.byte	52
 910 0139 01       		.byte	1
 911 013a 36       		.byte	54
 912 013b 02       		.byte	2
 913 013c 3E       		.byte	62
 914 013d 54       		.byte	84
 915 013e 58       		.byte	88
 916 013f 09       		.byte	9
 917 0140 5B       		.byte	91
 918 0141 04       		.byte	4
 919 0142 5C       		.byte	92
 920 0143 09       		.byte	9
 921 0144 5F       		.byte	95
 922 0145 01       		.byte	1
 923 0146 04       		.byte	4
 924 0147 10       		.byte	16
 925 0148 0C       		.byte	12
 926 0149 08       		.byte	8
 927 014a 0D       		.byte	13
 928 014b 80       		.byte	-128
 929 014c 15       		.byte	21
 930 014d 40       		.byte	64
 931 014e 17       		.byte	23
 932 014f 02       		.byte	2
 933 0150 1C       		.byte	28
 934 0151 01       		.byte	1
 935 0152 1E       		.byte	30
 936 0153 20       		.byte	32
 937 0154 1F       		.byte	31
 938 0155 12       		.byte	18
 939 0156 6C       		.byte	108
 940 0157 08       		.byte	8
 941 0158 6D       		.byte	109
 942 0159 40       		.byte	64
ARM GAS  C:\Users\Laurent\AppData\Local\Temp\ccp6NsMF.s 			page 28


 943 015a 7C       		.byte	124
 944 015b 10       		.byte	16
 945 015c 7F       		.byte	127
 946 015d 04       		.byte	4
 947 015e 86       		.byte	-122
 948 015f 10       		.byte	16
 949 0160 87       		.byte	-121
 950 0161 10       		.byte	16
 951 0162 89       		.byte	-119
 952 0163 80       		.byte	-128
 953 0164 8C       		.byte	-116
 954 0165 01       		.byte	1
 955 0166 93       		.byte	-109
 956 0167 08       		.byte	8
 957 0168 9B       		.byte	-101
 958 0169 02       		.byte	2
 959 016a A7       		.byte	-89
 960 016b 02       		.byte	2
 961 016c A8       		.byte	-88
 962 016d 10       		.byte	16
 963 016e A9       		.byte	-87
 964 016f 80       		.byte	-128
 965 0170 AF       		.byte	-81
 966 0171 16       		.byte	22
 967 0172 C0       		.byte	-64
 968 0173 40       		.byte	64
 969 0174 C2       		.byte	-62
 970 0175 A0       		.byte	-96
 971 0176 C4       		.byte	-60
 972 0177 90       		.byte	-112
 973 0178 DE       		.byte	-34
 974 0179 20       		.byte	32
 975 017a E4       		.byte	-28
 976 017b 08       		.byte	8
 977 017c E6       		.byte	-26
 978 017d 90       		.byte	-112
 979 017e 0A       		.byte	10
 980 017f 08       		.byte	8
 981 0180 0F       		.byte	15
 982 0181 40       		.byte	64
 983 0182 C2       		.byte	-62
 984 0183 60       		.byte	96
 985 0184 21       		.byte	33
 986 0185 40       		.byte	64
 987 0186 41       		.byte	65
 988 0187 40       		.byte	64
 989 0188 5D       		.byte	93
 990 0189 80       		.byte	-128
 991 018a 64       		.byte	100
 992 018b 10       		.byte	16
 993 018c 66       		.byte	102
 994 018d 80       		.byte	-128
 995 018e 84       		.byte	-124
 996 018f 10       		.byte	16
 997 0190 89       		.byte	-119
 998 0191 80       		.byte	-128
 999 0192 8E       		.byte	-114
ARM GAS  C:\Users\Laurent\AppData\Local\Temp\ccp6NsMF.s 			page 29


 1000 0193 80       		.byte	-128
 1001 0194 AE       		.byte	-82
 1002 0195 04       		.byte	4
 1003 0196 AF       		.byte	-81
 1004 0197 40       		.byte	64
 1005 0198 C8       		.byte	-56
 1006 0199 10       		.byte	16
 1007 019a D0       		.byte	-48
 1008 019b 10       		.byte	16
 1009 019c D6       		.byte	-42
 1010 019d A0       		.byte	-96
 1011 019e D8       		.byte	-40
 1012 019f 80       		.byte	-128
 1013 01a0 E6       		.byte	-26
 1014 01a1 40       		.byte	64
 1015 01a2 EC       		.byte	-20
 1016 01a3 50       		.byte	80
 1017 01a4 19       		.byte	25
 1018 01a5 A0       		.byte	-96
 1019 01a6 7B       		.byte	123
 1020 01a7 20       		.byte	32
 1021 01a8 87       		.byte	-121
 1022 01a9 20       		.byte	32
 1023 01aa 89       		.byte	-119
 1024 01ab A0       		.byte	-96
 1025 01ac C6       		.byte	-58
 1026 01ad 02       		.byte	2
 1027 01ae DE       		.byte	-34
 1028 01af 02       		.byte	2
 1029 01b0 E2       		.byte	-30
 1030 01b1 04       		.byte	4
 1031 01b2 E6       		.byte	-26
 1032 01b3 01       		.byte	1
 1033 01b4 10       		.byte	16
 1034 01b5 01       		.byte	1
 1035 01b6 11       		.byte	17
 1036 01b7 01       		.byte	1
 1037              		.text
 1038              	.Letext0:
 1039              		.file 2 "c:\\program files (x86)\\cypress\\psoc creator\\4.4\\psoc creator\\import\\gnu\\arm\\5.4.
 1040              		.file 3 "Generated_Source\\PSoC4\\cytypes.h"