ARM GAS  C:\Users\Laurent\AppData\Local\Temp\ccZikBlC.s 			page 1


   1              		.syntax unified
   2              		.cpu cortex-m0
   3              		.fpu softvfp
   4              		.eabi_attribute 20, 1
   5              		.eabi_attribute 21, 1
   6              		.eabi_attribute 23, 3
   7              		.eabi_attribute 24, 1
   8              		.eabi_attribute 25, 1
   9              		.eabi_attribute 26, 1
  10              		.eabi_attribute 30, 6
  11              		.eabi_attribute 34, 0
  12              		.eabi_attribute 18, 4
  13              		.thumb
  14              		.syntax unified
  15              		.file	"QuadDec_PM.c"
  16              		.text
  17              	.Ltext0:
  18              		.cfi_sections	.debug_frame
  19              		.bss
  20              		.align	2
  21              	QuadDec_backup:
  22 0000 00000000 		.space	6
  22      0000
  23              		.section	.text.QuadDec_SaveConfig,"ax",%progbits
  24              		.align	2
  25              		.global	QuadDec_SaveConfig
  26              		.code	16
  27              		.thumb_func
  28              		.type	QuadDec_SaveConfig, %function
  29              	QuadDec_SaveConfig:
  30              	.LFB0:
  31              		.file 1 "Generated_Source\\PSoC4\\QuadDec_PM.c"
   1:Generated_Source\PSoC4/QuadDec_PM.c **** /*******************************************************************************
   2:Generated_Source\PSoC4/QuadDec_PM.c **** * File Name: QuadDec_PM.c  
   3:Generated_Source\PSoC4/QuadDec_PM.c **** * Version 3.0
   4:Generated_Source\PSoC4/QuadDec_PM.c **** *
   5:Generated_Source\PSoC4/QuadDec_PM.c **** *  Description:
   6:Generated_Source\PSoC4/QuadDec_PM.c **** *    This file provides the power management source code to API for the
   7:Generated_Source\PSoC4/QuadDec_PM.c **** *    Counter.  
   8:Generated_Source\PSoC4/QuadDec_PM.c **** *
   9:Generated_Source\PSoC4/QuadDec_PM.c **** *   Note:
  10:Generated_Source\PSoC4/QuadDec_PM.c **** *     None
  11:Generated_Source\PSoC4/QuadDec_PM.c **** *
  12:Generated_Source\PSoC4/QuadDec_PM.c **** ********************************************************************************
  13:Generated_Source\PSoC4/QuadDec_PM.c **** * Copyright 2008-2012, Cypress Semiconductor Corporation.  All rights reserved.
  14:Generated_Source\PSoC4/QuadDec_PM.c **** * You may use this file only in accordance with the license, terms, conditions, 
  15:Generated_Source\PSoC4/QuadDec_PM.c **** * disclaimers, and limitations in the end user license agreement accompanying 
  16:Generated_Source\PSoC4/QuadDec_PM.c **** * the software package with which this file was provided.
  17:Generated_Source\PSoC4/QuadDec_PM.c **** *******************************************************************************/
  18:Generated_Source\PSoC4/QuadDec_PM.c **** 
  19:Generated_Source\PSoC4/QuadDec_PM.c **** #include "QuadDec.h"
  20:Generated_Source\PSoC4/QuadDec_PM.c **** 
  21:Generated_Source\PSoC4/QuadDec_PM.c **** static QuadDec_backupStruct QuadDec_backup;
  22:Generated_Source\PSoC4/QuadDec_PM.c **** 
  23:Generated_Source\PSoC4/QuadDec_PM.c **** 
  24:Generated_Source\PSoC4/QuadDec_PM.c **** /*******************************************************************************
  25:Generated_Source\PSoC4/QuadDec_PM.c **** * Function Name: QuadDec_SaveConfig
ARM GAS  C:\Users\Laurent\AppData\Local\Temp\ccZikBlC.s 			page 2


  26:Generated_Source\PSoC4/QuadDec_PM.c **** ********************************************************************************
  27:Generated_Source\PSoC4/QuadDec_PM.c **** * Summary:
  28:Generated_Source\PSoC4/QuadDec_PM.c **** *     Save the current user configuration
  29:Generated_Source\PSoC4/QuadDec_PM.c **** *
  30:Generated_Source\PSoC4/QuadDec_PM.c **** * Parameters:  
  31:Generated_Source\PSoC4/QuadDec_PM.c **** *  void
  32:Generated_Source\PSoC4/QuadDec_PM.c **** *
  33:Generated_Source\PSoC4/QuadDec_PM.c **** * Return: 
  34:Generated_Source\PSoC4/QuadDec_PM.c **** *  void
  35:Generated_Source\PSoC4/QuadDec_PM.c **** *
  36:Generated_Source\PSoC4/QuadDec_PM.c **** * Global variables:
  37:Generated_Source\PSoC4/QuadDec_PM.c **** *  QuadDec_backup:  Variables of this global structure are modified to 
  38:Generated_Source\PSoC4/QuadDec_PM.c **** *  store the values of non retention configuration registers when Sleep() API is 
  39:Generated_Source\PSoC4/QuadDec_PM.c **** *  called.
  40:Generated_Source\PSoC4/QuadDec_PM.c **** *
  41:Generated_Source\PSoC4/QuadDec_PM.c **** *******************************************************************************/
  42:Generated_Source\PSoC4/QuadDec_PM.c **** void QuadDec_SaveConfig(void) 
  43:Generated_Source\PSoC4/QuadDec_PM.c **** {
  32              		.loc 1 43 0
  33              		.cfi_startproc
  34              		@ args = 0, pretend = 0, frame = 0
  35              		@ frame_needed = 1, uses_anonymous_args = 0
  36 0000 80B5     		push	{r7, lr}
  37              		.cfi_def_cfa_offset 8
  38              		.cfi_offset 7, -8
  39              		.cfi_offset 14, -4
  40 0002 00AF     		add	r7, sp, #0
  41              		.cfi_def_cfa_register 7
  44:Generated_Source\PSoC4/QuadDec_PM.c ****     #if (!QuadDec_UsingFixedFunction)
  45:Generated_Source\PSoC4/QuadDec_PM.c **** 
  46:Generated_Source\PSoC4/QuadDec_PM.c ****         QuadDec_backup.CounterUdb = QuadDec_ReadCounter();
  42              		.loc 1 46 0
  43 0004 FFF7FEFF 		bl	QuadDec_ReadCounter
  44 0008 0300     		movs	r3, r0
  45 000a 1A00     		movs	r2, r3
  46 000c 054B     		ldr	r3, .L2
  47 000e 5A80     		strh	r2, [r3, #2]
  47:Generated_Source\PSoC4/QuadDec_PM.c **** 
  48:Generated_Source\PSoC4/QuadDec_PM.c ****         #if(!QuadDec_ControlRegRemoved)
  49:Generated_Source\PSoC4/QuadDec_PM.c ****             QuadDec_backup.CounterControlRegister = QuadDec_ReadControlRegister();
  48              		.loc 1 49 0
  49 0010 FFF7FEFF 		bl	QuadDec_ReadControlRegister
  50 0014 0300     		movs	r3, r0
  51 0016 1A00     		movs	r2, r3
  52 0018 024B     		ldr	r3, .L2
  53 001a 1A71     		strb	r2, [r3, #4]
  50:Generated_Source\PSoC4/QuadDec_PM.c ****         #endif /* (!QuadDec_ControlRegRemoved) */
  51:Generated_Source\PSoC4/QuadDec_PM.c **** 
  52:Generated_Source\PSoC4/QuadDec_PM.c ****     #endif /* (!QuadDec_UsingFixedFunction) */
  53:Generated_Source\PSoC4/QuadDec_PM.c **** }
  54              		.loc 1 53 0
  55 001c C046     		nop
  56 001e BD46     		mov	sp, r7
  57              		@ sp needed
  58 0020 80BD     		pop	{r7, pc}
  59              	.L3:
  60 0022 C046     		.align	2
ARM GAS  C:\Users\Laurent\AppData\Local\Temp\ccZikBlC.s 			page 3


  61              	.L2:
  62 0024 00000000 		.word	QuadDec_backup
  63              		.cfi_endproc
  64              	.LFE0:
  65              		.size	QuadDec_SaveConfig, .-QuadDec_SaveConfig
  66              		.section	.text.QuadDec_RestoreConfig,"ax",%progbits
  67              		.align	2
  68              		.global	QuadDec_RestoreConfig
  69              		.code	16
  70              		.thumb_func
  71              		.type	QuadDec_RestoreConfig, %function
  72              	QuadDec_RestoreConfig:
  73              	.LFB1:
  54:Generated_Source\PSoC4/QuadDec_PM.c **** 
  55:Generated_Source\PSoC4/QuadDec_PM.c **** 
  56:Generated_Source\PSoC4/QuadDec_PM.c **** /*******************************************************************************
  57:Generated_Source\PSoC4/QuadDec_PM.c **** * Function Name: QuadDec_RestoreConfig
  58:Generated_Source\PSoC4/QuadDec_PM.c **** ********************************************************************************
  59:Generated_Source\PSoC4/QuadDec_PM.c **** *
  60:Generated_Source\PSoC4/QuadDec_PM.c **** * Summary:
  61:Generated_Source\PSoC4/QuadDec_PM.c **** *  Restores the current user configuration.
  62:Generated_Source\PSoC4/QuadDec_PM.c **** *
  63:Generated_Source\PSoC4/QuadDec_PM.c **** * Parameters:  
  64:Generated_Source\PSoC4/QuadDec_PM.c **** *  void
  65:Generated_Source\PSoC4/QuadDec_PM.c **** *
  66:Generated_Source\PSoC4/QuadDec_PM.c **** * Return: 
  67:Generated_Source\PSoC4/QuadDec_PM.c **** *  void
  68:Generated_Source\PSoC4/QuadDec_PM.c **** *
  69:Generated_Source\PSoC4/QuadDec_PM.c **** * Global variables:
  70:Generated_Source\PSoC4/QuadDec_PM.c **** *  QuadDec_backup:  Variables of this global structure are used to 
  71:Generated_Source\PSoC4/QuadDec_PM.c **** *  restore the values of non retention registers on wakeup from sleep mode.
  72:Generated_Source\PSoC4/QuadDec_PM.c **** *
  73:Generated_Source\PSoC4/QuadDec_PM.c **** *******************************************************************************/
  74:Generated_Source\PSoC4/QuadDec_PM.c **** void QuadDec_RestoreConfig(void) 
  75:Generated_Source\PSoC4/QuadDec_PM.c **** {      
  74              		.loc 1 75 0
  75              		.cfi_startproc
  76              		@ args = 0, pretend = 0, frame = 0
  77              		@ frame_needed = 1, uses_anonymous_args = 0
  78 0000 80B5     		push	{r7, lr}
  79              		.cfi_def_cfa_offset 8
  80              		.cfi_offset 7, -8
  81              		.cfi_offset 14, -4
  82 0002 00AF     		add	r7, sp, #0
  83              		.cfi_def_cfa_register 7
  76:Generated_Source\PSoC4/QuadDec_PM.c ****     #if (!QuadDec_UsingFixedFunction)
  77:Generated_Source\PSoC4/QuadDec_PM.c **** 
  78:Generated_Source\PSoC4/QuadDec_PM.c ****        QuadDec_WriteCounter(QuadDec_backup.CounterUdb);
  84              		.loc 1 78 0
  85 0004 064B     		ldr	r3, .L5
  86 0006 5B88     		ldrh	r3, [r3, #2]
  87 0008 1800     		movs	r0, r3
  88 000a FFF7FEFF 		bl	QuadDec_WriteCounter
  79:Generated_Source\PSoC4/QuadDec_PM.c **** 
  80:Generated_Source\PSoC4/QuadDec_PM.c ****         #if(!QuadDec_ControlRegRemoved)
  81:Generated_Source\PSoC4/QuadDec_PM.c ****             QuadDec_WriteControlRegister(QuadDec_backup.CounterControlRegister);
  89              		.loc 1 81 0
ARM GAS  C:\Users\Laurent\AppData\Local\Temp\ccZikBlC.s 			page 4


  90 000e 044B     		ldr	r3, .L5
  91 0010 1B79     		ldrb	r3, [r3, #4]
  92 0012 1800     		movs	r0, r3
  93 0014 FFF7FEFF 		bl	QuadDec_WriteControlRegister
  82:Generated_Source\PSoC4/QuadDec_PM.c ****         #endif /* (!QuadDec_ControlRegRemoved) */
  83:Generated_Source\PSoC4/QuadDec_PM.c **** 
  84:Generated_Source\PSoC4/QuadDec_PM.c ****     #endif /* (!QuadDec_UsingFixedFunction) */
  85:Generated_Source\PSoC4/QuadDec_PM.c **** }
  94              		.loc 1 85 0
  95 0018 C046     		nop
  96 001a BD46     		mov	sp, r7
  97              		@ sp needed
  98 001c 80BD     		pop	{r7, pc}
  99              	.L6:
 100 001e C046     		.align	2
 101              	.L5:
 102 0020 00000000 		.word	QuadDec_backup
 103              		.cfi_endproc
 104              	.LFE1:
 105              		.size	QuadDec_RestoreConfig, .-QuadDec_RestoreConfig
 106              		.section	.text.QuadDec_Sleep,"ax",%progbits
 107              		.align	2
 108              		.global	QuadDec_Sleep
 109              		.code	16
 110              		.thumb_func
 111              		.type	QuadDec_Sleep, %function
 112              	QuadDec_Sleep:
 113              	.LFB2:
  86:Generated_Source\PSoC4/QuadDec_PM.c **** 
  87:Generated_Source\PSoC4/QuadDec_PM.c **** 
  88:Generated_Source\PSoC4/QuadDec_PM.c **** /*******************************************************************************
  89:Generated_Source\PSoC4/QuadDec_PM.c **** * Function Name: QuadDec_Sleep
  90:Generated_Source\PSoC4/QuadDec_PM.c **** ********************************************************************************
  91:Generated_Source\PSoC4/QuadDec_PM.c **** * Summary:
  92:Generated_Source\PSoC4/QuadDec_PM.c **** *     Stop and Save the user configuration
  93:Generated_Source\PSoC4/QuadDec_PM.c **** *
  94:Generated_Source\PSoC4/QuadDec_PM.c **** * Parameters:  
  95:Generated_Source\PSoC4/QuadDec_PM.c **** *  void
  96:Generated_Source\PSoC4/QuadDec_PM.c **** *
  97:Generated_Source\PSoC4/QuadDec_PM.c **** * Return: 
  98:Generated_Source\PSoC4/QuadDec_PM.c **** *  void
  99:Generated_Source\PSoC4/QuadDec_PM.c **** *
 100:Generated_Source\PSoC4/QuadDec_PM.c **** * Global variables:
 101:Generated_Source\PSoC4/QuadDec_PM.c **** *  QuadDec_backup.enableState:  Is modified depending on the enable 
 102:Generated_Source\PSoC4/QuadDec_PM.c **** *  state of the block before entering sleep mode.
 103:Generated_Source\PSoC4/QuadDec_PM.c **** *
 104:Generated_Source\PSoC4/QuadDec_PM.c **** *******************************************************************************/
 105:Generated_Source\PSoC4/QuadDec_PM.c **** void QuadDec_Sleep(void) 
 106:Generated_Source\PSoC4/QuadDec_PM.c **** {
 114              		.loc 1 106 0
 115              		.cfi_startproc
 116              		@ args = 0, pretend = 0, frame = 0
 117              		@ frame_needed = 1, uses_anonymous_args = 0
 118 0000 80B5     		push	{r7, lr}
 119              		.cfi_def_cfa_offset 8
 120              		.cfi_offset 7, -8
 121              		.cfi_offset 14, -4
ARM GAS  C:\Users\Laurent\AppData\Local\Temp\ccZikBlC.s 			page 5


 122 0002 00AF     		add	r7, sp, #0
 123              		.cfi_def_cfa_register 7
 107:Generated_Source\PSoC4/QuadDec_PM.c ****     #if(!QuadDec_ControlRegRemoved)
 108:Generated_Source\PSoC4/QuadDec_PM.c ****         /* Save Counter's enable state */
 109:Generated_Source\PSoC4/QuadDec_PM.c ****         if(QuadDec_CTRL_ENABLE == (QuadDec_CONTROL & QuadDec_CTRL_ENABLE))
 124              		.loc 1 109 0
 125 0004 094B     		ldr	r3, .L10
 126 0006 1B78     		ldrb	r3, [r3]
 127 0008 DBB2     		uxtb	r3, r3
 128 000a 5BB2     		sxtb	r3, r3
 129 000c 002B     		cmp	r3, #0
 130 000e 03DA     		bge	.L8
 110:Generated_Source\PSoC4/QuadDec_PM.c ****         {
 111:Generated_Source\PSoC4/QuadDec_PM.c ****             /* Counter is enabled */
 112:Generated_Source\PSoC4/QuadDec_PM.c ****             QuadDec_backup.CounterEnableState = 1u;
 131              		.loc 1 112 0
 132 0010 074B     		ldr	r3, .L10+4
 133 0012 0122     		movs	r2, #1
 134 0014 1A70     		strb	r2, [r3]
 135 0016 02E0     		b	.L9
 136              	.L8:
 113:Generated_Source\PSoC4/QuadDec_PM.c ****         }
 114:Generated_Source\PSoC4/QuadDec_PM.c ****         else
 115:Generated_Source\PSoC4/QuadDec_PM.c ****         {
 116:Generated_Source\PSoC4/QuadDec_PM.c ****             /* Counter is disabled */
 117:Generated_Source\PSoC4/QuadDec_PM.c ****             QuadDec_backup.CounterEnableState = 0u;
 137              		.loc 1 117 0
 138 0018 054B     		ldr	r3, .L10+4
 139 001a 0022     		movs	r2, #0
 140 001c 1A70     		strb	r2, [r3]
 141              	.L9:
 118:Generated_Source\PSoC4/QuadDec_PM.c ****         }
 119:Generated_Source\PSoC4/QuadDec_PM.c ****     #else
 120:Generated_Source\PSoC4/QuadDec_PM.c ****         QuadDec_backup.CounterEnableState = 1u;
 121:Generated_Source\PSoC4/QuadDec_PM.c ****         if(QuadDec_backup.CounterEnableState != 0u)
 122:Generated_Source\PSoC4/QuadDec_PM.c ****         {
 123:Generated_Source\PSoC4/QuadDec_PM.c ****             QuadDec_backup.CounterEnableState = 0u;
 124:Generated_Source\PSoC4/QuadDec_PM.c ****         }
 125:Generated_Source\PSoC4/QuadDec_PM.c ****     #endif /* (!QuadDec_ControlRegRemoved) */
 126:Generated_Source\PSoC4/QuadDec_PM.c ****     
 127:Generated_Source\PSoC4/QuadDec_PM.c ****     QuadDec_Stop();
 142              		.loc 1 127 0
 143 001e FFF7FEFF 		bl	QuadDec_Stop
 128:Generated_Source\PSoC4/QuadDec_PM.c ****     QuadDec_SaveConfig();
 144              		.loc 1 128 0
 145 0022 FFF7FEFF 		bl	QuadDec_SaveConfig
 129:Generated_Source\PSoC4/QuadDec_PM.c **** }
 146              		.loc 1 129 0
 147 0026 C046     		nop
 148 0028 BD46     		mov	sp, r7
 149              		@ sp needed
 150 002a 80BD     		pop	{r7, pc}
 151              	.L11:
 152              		.align	2
 153              	.L10:
 154 002c 71000F40 		.word	1074724977
 155 0030 00000000 		.word	QuadDec_backup
ARM GAS  C:\Users\Laurent\AppData\Local\Temp\ccZikBlC.s 			page 6


 156              		.cfi_endproc
 157              	.LFE2:
 158              		.size	QuadDec_Sleep, .-QuadDec_Sleep
 159              		.section	.text.QuadDec_Wakeup,"ax",%progbits
 160              		.align	2
 161              		.global	QuadDec_Wakeup
 162              		.code	16
 163              		.thumb_func
 164              		.type	QuadDec_Wakeup, %function
 165              	QuadDec_Wakeup:
 166              	.LFB3:
 130:Generated_Source\PSoC4/QuadDec_PM.c **** 
 131:Generated_Source\PSoC4/QuadDec_PM.c **** 
 132:Generated_Source\PSoC4/QuadDec_PM.c **** /*******************************************************************************
 133:Generated_Source\PSoC4/QuadDec_PM.c **** * Function Name: QuadDec_Wakeup
 134:Generated_Source\PSoC4/QuadDec_PM.c **** ********************************************************************************
 135:Generated_Source\PSoC4/QuadDec_PM.c **** *
 136:Generated_Source\PSoC4/QuadDec_PM.c **** * Summary:
 137:Generated_Source\PSoC4/QuadDec_PM.c **** *  Restores and enables the user configuration
 138:Generated_Source\PSoC4/QuadDec_PM.c **** *  
 139:Generated_Source\PSoC4/QuadDec_PM.c **** * Parameters:  
 140:Generated_Source\PSoC4/QuadDec_PM.c **** *  void
 141:Generated_Source\PSoC4/QuadDec_PM.c **** *
 142:Generated_Source\PSoC4/QuadDec_PM.c **** * Return: 
 143:Generated_Source\PSoC4/QuadDec_PM.c **** *  void
 144:Generated_Source\PSoC4/QuadDec_PM.c **** *
 145:Generated_Source\PSoC4/QuadDec_PM.c **** * Global variables:
 146:Generated_Source\PSoC4/QuadDec_PM.c **** *  QuadDec_backup.enableState:  Is used to restore the enable state of 
 147:Generated_Source\PSoC4/QuadDec_PM.c **** *  block on wakeup from sleep mode.
 148:Generated_Source\PSoC4/QuadDec_PM.c **** *
 149:Generated_Source\PSoC4/QuadDec_PM.c **** *******************************************************************************/
 150:Generated_Source\PSoC4/QuadDec_PM.c **** void QuadDec_Wakeup(void) 
 151:Generated_Source\PSoC4/QuadDec_PM.c **** {
 167              		.loc 1 151 0
 168              		.cfi_startproc
 169              		@ args = 0, pretend = 0, frame = 0
 170              		@ frame_needed = 1, uses_anonymous_args = 0
 171 0000 80B5     		push	{r7, lr}
 172              		.cfi_def_cfa_offset 8
 173              		.cfi_offset 7, -8
 174              		.cfi_offset 14, -4
 175 0002 00AF     		add	r7, sp, #0
 176              		.cfi_def_cfa_register 7
 152:Generated_Source\PSoC4/QuadDec_PM.c ****     QuadDec_RestoreConfig();
 177              		.loc 1 152 0
 178 0004 FFF7FEFF 		bl	QuadDec_RestoreConfig
 153:Generated_Source\PSoC4/QuadDec_PM.c ****     #if(!QuadDec_ControlRegRemoved)
 154:Generated_Source\PSoC4/QuadDec_PM.c ****         if(QuadDec_backup.CounterEnableState == 1u)
 179              		.loc 1 154 0
 180 0008 044B     		ldr	r3, .L15
 181 000a 1B78     		ldrb	r3, [r3]
 182 000c 012B     		cmp	r3, #1
 183 000e 01D1     		bne	.L14
 155:Generated_Source\PSoC4/QuadDec_PM.c ****         {
 156:Generated_Source\PSoC4/QuadDec_PM.c ****             /* Enable Counter's operation */
 157:Generated_Source\PSoC4/QuadDec_PM.c ****             QuadDec_Enable();
 184              		.loc 1 157 0
ARM GAS  C:\Users\Laurent\AppData\Local\Temp\ccZikBlC.s 			page 7


 185 0010 FFF7FEFF 		bl	QuadDec_Enable
 186              	.L14:
 158:Generated_Source\PSoC4/QuadDec_PM.c ****         } /* Do nothing if Counter was disabled before */    
 159:Generated_Source\PSoC4/QuadDec_PM.c ****     #endif /* (!QuadDec_ControlRegRemoved) */
 160:Generated_Source\PSoC4/QuadDec_PM.c ****     
 161:Generated_Source\PSoC4/QuadDec_PM.c **** }
 187              		.loc 1 161 0
 188 0014 C046     		nop
 189 0016 BD46     		mov	sp, r7
 190              		@ sp needed
 191 0018 80BD     		pop	{r7, pc}
 192              	.L16:
 193 001a C046     		.align	2
 194              	.L15:
 195 001c 00000000 		.word	QuadDec_backup
 196              		.cfi_endproc
 197              	.LFE3:
 198              		.size	QuadDec_Wakeup, .-QuadDec_Wakeup
 199              		.text
 200              	.Letext0:
 201              		.file 2 "Generated_Source\\PSoC4\\cytypes.h"
 202              		.file 3 "Generated_Source\\PSoC4\\QuadDec.h"