ARM GAS  C:\Users\Laurent\AppData\Local\Temp\ccV7mqFv.s 			page 1


   1              		.syntax unified
   2              		.cpu cortex-m0
   3              		.fpu softvfp
   4              		.eabi_attribute 20, 1
   5              		.eabi_attribute 21, 1
   6              		.eabi_attribute 23, 3
   7              		.eabi_attribute 24, 1
   8              		.eabi_attribute 25, 1
   9              		.eabi_attribute 26, 1
  10              		.eabi_attribute 30, 6
  11              		.eabi_attribute 34, 0
  12              		.eabi_attribute 18, 4
  13              		.thumb
  14              		.syntax unified
  15              		.file	"UART_XG.c"
  16              		.text
  17              	.Ltext0:
  18              		.cfi_sections	.debug_frame
  19              		.section	.text.Get_trame_matlab,"ax",%progbits
  20              		.align	2
  21              		.global	Get_trame_matlab
  22              		.code	16
  23              		.thumb_func
  24              		.type	Get_trame_matlab, %function
  25              	Get_trame_matlab:
  26              	.LFB32:
  27              		.file 1 "UART_XG.c"
   1:UART_XG.c     **** /* ========================================
   2:UART_XG.c     ****  *
   3:UART_XG.c     ****  * Copyright YOUR COMPANY, THE YEAR
   4:UART_XG.c     ****  * All Rights Reserved
   5:UART_XG.c     ****  * UNPUBLISHED, LICENSED SOFTWARE.
   6:UART_XG.c     ****  *
   7:UART_XG.c     ****  * CONFIDENTIAL AND PROPRIETARY INFORMATION
   8:UART_XG.c     ****  * WHICH IS THE PROPERTY OF your company.
   9:UART_XG.c     ****  *
  10:UART_XG.c     ****  * ========================================
  11:UART_XG.c     **** */
  12:UART_XG.c     **** #include "UART_XG.h"
  13:UART_XG.c     **** int32 Get_trame_matlab()
  14:UART_XG.c     **** {
  28              		.loc 1 14 0
  29              		.cfi_startproc
  30              		@ args = 0, pretend = 0, frame = 56
  31              		@ frame_needed = 1, uses_anonymous_args = 0
  32 0000 80B5     		push	{r7, lr}
  33              		.cfi_def_cfa_offset 8
  34              		.cfi_offset 7, -8
  35              		.cfi_offset 14, -4
  36 0002 8EB0     		sub	sp, sp, #56
  37              		.cfi_def_cfa_offset 64
  38 0004 00AF     		add	r7, sp, #0
  39              		.cfi_def_cfa_register 7
  15:UART_XG.c     ****     uint8 indexe,*tmp8;
  16:UART_XG.c     ****     uint8 rxdata[FRAME_SIZE-2];
  17:UART_XG.c     ****     uint32 tmp32,debut;
  18:UART_XG.c     ****     tmp8 =(uint8*) &tmp32;
ARM GAS  C:\Users\Laurent\AppData\Local\Temp\ccV7mqFv.s 			page 2


  40              		.loc 1 18 0
  41 0006 3B00     		movs	r3, r7
  42 0008 3B63     		str	r3, [r7, #48]
  19:UART_XG.c     ****     indexe=0;
  43              		.loc 1 19 0
  44 000a 3723     		movs	r3, #55
  45 000c FB18     		adds	r3, r7, r3
  46 000e 0022     		movs	r2, #0
  47 0010 1A70     		strb	r2, [r3]
  20:UART_XG.c     ****     debut=time;
  48              		.loc 1 20 0
  49 0012 374B     		ldr	r3, .L11
  50 0014 1B68     		ldr	r3, [r3]
  51 0016 FB62     		str	r3, [r7, #44]
  21:UART_XG.c     ****     while((indexe<FRAME_SIZE_MATLAB)&&((time-debut)<UART_TIMEOUT))
  52              		.loc 1 21 0
  53 0018 4CE0     		b	.L2
  54              	.L7:
  22:UART_XG.c     ****     {
  23:UART_XG.c     ****       tmp32 = UART_UartGetByte();
  55              		.loc 1 23 0
  56 001a FFF7FEFF 		bl	UART_UartGetByte
  57 001e 0300     		movs	r3, r0
  58 0020 3B60     		str	r3, [r7]
  24:UART_XG.c     ****       if (tmp32>255)
  59              		.loc 1 24 0
  60 0022 3B68     		ldr	r3, [r7]
  61 0024 3722     		movs	r2, #55
  62 0026 BA18     		adds	r2, r7, r2
  63 0028 3721     		movs	r1, #55
  64 002a 7918     		adds	r1, r7, r1
  65 002c 0978     		ldrb	r1, [r1]
  66 002e 1170     		strb	r1, [r2]
  67 0030 FF2B     		cmp	r3, #255
  68 0032 3FD8     		bhi	.L2
  25:UART_XG.c     ****       {
  26:UART_XG.c     ****       //   UART_UartPutString("Buffer eror ok\r\n");
  27:UART_XG.c     ****        // indexe=0;
  28:UART_XG.c     ****       }    
  29:UART_XG.c     ****       else 
  30:UART_XG.c     ****       {
  31:UART_XG.c     ****         if ((*tmp8=='M') && (indexe==0))
  69              		.loc 1 31 0
  70 0034 3B6B     		ldr	r3, [r7, #48]
  71 0036 1B78     		ldrb	r3, [r3]
  72 0038 4D2B     		cmp	r3, #77
  73 003a 0CD1     		bne	.L3
  74              		.loc 1 31 0 is_stmt 0 discriminator 1
  75 003c 3723     		movs	r3, #55
  76 003e FB18     		adds	r3, r7, r3
  77 0040 1B78     		ldrb	r3, [r3]
  78 0042 002B     		cmp	r3, #0
  79 0044 07D1     		bne	.L3
  32:UART_XG.c     ****         {
  33:UART_XG.c     ****             indexe++;
  80              		.loc 1 33 0 is_stmt 1
  81 0046 3723     		movs	r3, #55
ARM GAS  C:\Users\Laurent\AppData\Local\Temp\ccV7mqFv.s 			page 3


  82 0048 FB18     		adds	r3, r7, r3
  83 004a 1A78     		ldrb	r2, [r3]
  84 004c 3723     		movs	r3, #55
  85 004e FB18     		adds	r3, r7, r3
  86 0050 0132     		adds	r2, r2, #1
  87 0052 1A70     		strb	r2, [r3]
  88 0054 2EE0     		b	.L2
  89              	.L3:
  34:UART_XG.c     ****         }
  35:UART_XG.c     ****         else if ((*tmp8=='M') && (indexe==1))
  90              		.loc 1 35 0
  91 0056 3B6B     		ldr	r3, [r7, #48]
  92 0058 1B78     		ldrb	r3, [r3]
  93 005a 4D2B     		cmp	r3, #77
  94 005c 0CD1     		bne	.L4
  95              		.loc 1 35 0 is_stmt 0 discriminator 1
  96 005e 3723     		movs	r3, #55
  97 0060 FB18     		adds	r3, r7, r3
  98 0062 1B78     		ldrb	r3, [r3]
  99 0064 012B     		cmp	r3, #1
 100 0066 07D1     		bne	.L4
  36:UART_XG.c     ****         {
  37:UART_XG.c     ****             indexe++;
 101              		.loc 1 37 0 is_stmt 1
 102 0068 3723     		movs	r3, #55
 103 006a FB18     		adds	r3, r7, r3
 104 006c 1A78     		ldrb	r2, [r3]
 105 006e 3723     		movs	r3, #55
 106 0070 FB18     		adds	r3, r7, r3
 107 0072 0132     		adds	r2, r2, #1
 108 0074 1A70     		strb	r2, [r3]
 109 0076 1DE0     		b	.L2
 110              	.L4:
  38:UART_XG.c     ****         }
  39:UART_XG.c     ****         else if((indexe>1)&&(indexe<FRAME_SIZE_MATLAB)) // ??? 
 111              		.loc 1 39 0
 112 0078 3723     		movs	r3, #55
 113 007a FB18     		adds	r3, r7, r3
 114 007c 1B78     		ldrb	r3, [r3]
 115 007e 012B     		cmp	r3, #1
 116 0080 14D9     		bls	.L5
 117              		.loc 1 39 0 is_stmt 0 discriminator 1
 118 0082 3723     		movs	r3, #55
 119 0084 FB18     		adds	r3, r7, r3
 120 0086 1B78     		ldrb	r3, [r3]
 121 0088 032B     		cmp	r3, #3
 122 008a 0FD8     		bhi	.L5
  40:UART_XG.c     ****         {
  41:UART_XG.c     ****             rxdata[indexe-2]=*tmp8; 
 123              		.loc 1 41 0 is_stmt 1
 124 008c 3723     		movs	r3, #55
 125 008e FB18     		adds	r3, r7, r3
 126 0090 1B78     		ldrb	r3, [r3]
 127 0092 023B     		subs	r3, r3, #2
 128 0094 3A6B     		ldr	r2, [r7, #48]
 129 0096 1178     		ldrb	r1, [r2]
 130 0098 3A1D     		adds	r2, r7, #4
ARM GAS  C:\Users\Laurent\AppData\Local\Temp\ccV7mqFv.s 			page 4


 131 009a D154     		strb	r1, [r2, r3]
  42:UART_XG.c     ****             indexe++;
 132              		.loc 1 42 0
 133 009c 3723     		movs	r3, #55
 134 009e FB18     		adds	r3, r7, r3
 135 00a0 1A78     		ldrb	r2, [r3]
 136 00a2 3723     		movs	r3, #55
 137 00a4 FB18     		adds	r3, r7, r3
 138 00a6 0132     		adds	r2, r2, #1
 139 00a8 1A70     		strb	r2, [r3]
 140 00aa 03E0     		b	.L2
 141              	.L5:
  43:UART_XG.c     ****         }
  44:UART_XG.c     ****         else
  45:UART_XG.c     ****         {
  46:UART_XG.c     ****             indexe=0;
 142              		.loc 1 46 0
 143 00ac 3723     		movs	r3, #55
 144 00ae FB18     		adds	r3, r7, r3
 145 00b0 0022     		movs	r2, #0
 146 00b2 1A70     		strb	r2, [r3]
 147              	.L2:
  21:UART_XG.c     ****     {
 148              		.loc 1 21 0
 149 00b4 3723     		movs	r3, #55
 150 00b6 FB18     		adds	r3, r7, r3
 151 00b8 1B78     		ldrb	r3, [r3]
 152 00ba 032B     		cmp	r3, #3
 153 00bc 06D8     		bhi	.L6
  21:UART_XG.c     ****     {
 154              		.loc 1 21 0 is_stmt 0 discriminator 1
 155 00be 0C4B     		ldr	r3, .L11
 156 00c0 1A68     		ldr	r2, [r3]
 157 00c2 FB6A     		ldr	r3, [r7, #44]
 158 00c4 D31A     		subs	r3, r2, r3
 159 00c6 0B4A     		ldr	r2, .L11+4
 160 00c8 9342     		cmp	r3, r2
 161 00ca A6D9     		bls	.L7
 162              	.L6:
  47:UART_XG.c     ****         }  
  48:UART_XG.c     ****        } 
  49:UART_XG.c     ****     }
  50:UART_XG.c     ****     if(indexe==3) return (rxdata[0]<<8)+rxdata[1];
 163              		.loc 1 50 0 is_stmt 1
 164 00cc 3723     		movs	r3, #55
 165 00ce FB18     		adds	r3, r7, r3
 166 00d0 1B78     		ldrb	r3, [r3]
 167 00d2 032B     		cmp	r3, #3
 168 00d4 06D1     		bne	.L8
 169              		.loc 1 50 0 is_stmt 0 discriminator 1
 170 00d6 3B1D     		adds	r3, r7, #4
 171 00d8 1B78     		ldrb	r3, [r3]
 172 00da 1B02     		lsls	r3, r3, #8
 173 00dc 3A1D     		adds	r2, r7, #4
 174 00de 5278     		ldrb	r2, [r2, #1]
 175 00e0 9B18     		adds	r3, r3, r2
 176 00e2 00E0     		b	.L10
ARM GAS  C:\Users\Laurent\AppData\Local\Temp\ccV7mqFv.s 			page 5


 177              	.L8:
  51:UART_XG.c     ****     else return 0;
 178              		.loc 1 51 0 is_stmt 1
 179 00e4 0023     		movs	r3, #0
 180              	.L10:
  52:UART_XG.c     **** }
 181              		.loc 1 52 0 discriminator 1
 182 00e6 1800     		movs	r0, r3
 183 00e8 BD46     		mov	sp, r7
 184 00ea 0EB0     		add	sp, sp, #56
 185              		@ sp needed
 186 00ec 80BD     		pop	{r7, pc}
 187              	.L12:
 188 00ee C046     		.align	2
 189              	.L11:
 190 00f0 00000000 		.word	time
 191 00f4 E7030000 		.word	999
 192              		.cfi_endproc
 193              	.LFE32:
 194              		.size	Get_trame_matlab, .-Get_trame_matlab
 195              		.section	.text.Get_trame,"ax",%progbits
 196              		.align	2
 197              		.global	Get_trame
 198              		.code	16
 199              		.thumb_func
 200              		.type	Get_trame, %function
 201              	Get_trame:
 202              	.LFB33:
  53:UART_XG.c     **** 
  54:UART_XG.c     **** uint8 Get_trame() // uint8 *rxdata)
  55:UART_XG.c     **** {
 203              		.loc 1 55 0
 204              		.cfi_startproc
 205              		@ args = 0, pretend = 0, frame = 56
 206              		@ frame_needed = 1, uses_anonymous_args = 0
 207 0000 80B5     		push	{r7, lr}
 208              		.cfi_def_cfa_offset 8
 209              		.cfi_offset 7, -8
 210              		.cfi_offset 14, -4
 211 0002 8EB0     		sub	sp, sp, #56
 212              		.cfi_def_cfa_offset 64
 213 0004 00AF     		add	r7, sp, #0
 214              		.cfi_def_cfa_register 7
  56:UART_XG.c     **** 
  57:UART_XG.c     ****     uint8 indexe,*tmp8,ok;
  58:UART_XG.c     ****     uint8 rxdata[FRAME_SIZE-4];
  59:UART_XG.c     ****     uint16 CRCcalc;
  60:UART_XG.c     ****     uint32 tmp32,debut;
  61:UART_XG.c     ****     tmp8 =(uint8*) &tmp32;
 215              		.loc 1 61 0
 216 0006 3B00     		movs	r3, r7
 217 0008 3B63     		str	r3, [r7, #48]
  62:UART_XG.c     ****     ok=false;
 218              		.loc 1 62 0
 219 000a 3623     		movs	r3, #54
 220 000c FB18     		adds	r3, r7, r3
 221 000e 0022     		movs	r2, #0
ARM GAS  C:\Users\Laurent\AppData\Local\Temp\ccV7mqFv.s 			page 6


 222 0010 1A70     		strb	r2, [r3]
  63:UART_XG.c     ****     indexe=0;
 223              		.loc 1 63 0
 224 0012 3723     		movs	r3, #55
 225 0014 FB18     		adds	r3, r7, r3
 226 0016 0022     		movs	r2, #0
 227 0018 1A70     		strb	r2, [r3]
  64:UART_XG.c     ****     debut=time;
 228              		.loc 1 64 0
 229 001a 384B     		ldr	r3, .L27
 230 001c 1B68     		ldr	r3, [r3]
 231 001e FB62     		str	r3, [r7, #44]
  65:UART_XG.c     **** //    txdata=rxdata;
  66:UART_XG.c     ****     while((indexe<FRAME_SIZE)&&((time-debut)<UART_TIMEOUT))
 232              		.loc 1 66 0
 233 0020 72E0     		b	.L14
 234              	.L21:
  67:UART_XG.c     ****     {
  68:UART_XG.c     ****       tmp32 = UART_UartGetByte();
 235              		.loc 1 68 0
 236 0022 FFF7FEFF 		bl	UART_UartGetByte
 237 0026 0300     		movs	r3, r0
 238 0028 3B60     		str	r3, [r7]
  69:UART_XG.c     ****       if (tmp32>255)
 239              		.loc 1 69 0
 240 002a 3B68     		ldr	r3, [r7]
 241 002c 3722     		movs	r2, #55
 242 002e BA18     		adds	r2, r7, r2
 243 0030 3721     		movs	r1, #55
 244 0032 7918     		adds	r1, r7, r1
 245 0034 0978     		ldrb	r1, [r1]
 246 0036 1170     		strb	r1, [r2]
 247 0038 FF2B     		cmp	r3, #255
 248 003a 00D9     		bls	.LCB201
 249 003c 64E0     		b	.L14	@long jump
 250              	.LCB201:
  70:UART_XG.c     ****       {
  71:UART_XG.c     ****       //   UART_UartPutString("Buffer eror ok\r\n");
  72:UART_XG.c     ****        // indexe=0;
  73:UART_XG.c     ****       }    
  74:UART_XG.c     ****       else 
  75:UART_XG.c     ****       {
  76:UART_XG.c     ****         if ((*tmp8=='P') && (indexe==0))
 251              		.loc 1 76 0
 252 003e 3B6B     		ldr	r3, [r7, #48]
 253 0040 1B78     		ldrb	r3, [r3]
 254 0042 502B     		cmp	r3, #80
 255 0044 0CD1     		bne	.L15
 256              		.loc 1 76 0 is_stmt 0 discriminator 1
 257 0046 3723     		movs	r3, #55
 258 0048 FB18     		adds	r3, r7, r3
 259 004a 1B78     		ldrb	r3, [r3]
 260 004c 002B     		cmp	r3, #0
 261 004e 07D1     		bne	.L15
  77:UART_XG.c     ****         {
  78:UART_XG.c     ****             indexe++;
 262              		.loc 1 78 0 is_stmt 1
ARM GAS  C:\Users\Laurent\AppData\Local\Temp\ccV7mqFv.s 			page 7


 263 0050 3723     		movs	r3, #55
 264 0052 FB18     		adds	r3, r7, r3
 265 0054 1A78     		ldrb	r2, [r3]
 266 0056 3723     		movs	r3, #55
 267 0058 FB18     		adds	r3, r7, r3
 268 005a 0132     		adds	r2, r2, #1
 269 005c 1A70     		strb	r2, [r3]
 270 005e 53E0     		b	.L14
 271              	.L15:
  79:UART_XG.c     ****         }
  80:UART_XG.c     ****         else if ((*tmp8=='A') && (indexe==1))
 272              		.loc 1 80 0
 273 0060 3B6B     		ldr	r3, [r7, #48]
 274 0062 1B78     		ldrb	r3, [r3]
 275 0064 412B     		cmp	r3, #65
 276 0066 0CD1     		bne	.L16
 277              		.loc 1 80 0 is_stmt 0 discriminator 1
 278 0068 3723     		movs	r3, #55
 279 006a FB18     		adds	r3, r7, r3
 280 006c 1B78     		ldrb	r3, [r3]
 281 006e 012B     		cmp	r3, #1
 282 0070 07D1     		bne	.L16
  81:UART_XG.c     ****         {
  82:UART_XG.c     ****             indexe++;
 283              		.loc 1 82 0 is_stmt 1
 284 0072 3723     		movs	r3, #55
 285 0074 FB18     		adds	r3, r7, r3
 286 0076 1A78     		ldrb	r2, [r3]
 287 0078 3723     		movs	r3, #55
 288 007a FB18     		adds	r3, r7, r3
 289 007c 0132     		adds	r2, r2, #1
 290 007e 1A70     		strb	r2, [r3]
 291 0080 42E0     		b	.L14
 292              	.L16:
  83:UART_XG.c     ****         }
  84:UART_XG.c     ****         else if ((*tmp8=='R') && (indexe==2))
 293              		.loc 1 84 0
 294 0082 3B6B     		ldr	r3, [r7, #48]
 295 0084 1B78     		ldrb	r3, [r3]
 296 0086 522B     		cmp	r3, #82
 297 0088 0CD1     		bne	.L17
 298              		.loc 1 84 0 is_stmt 0 discriminator 1
 299 008a 3723     		movs	r3, #55
 300 008c FB18     		adds	r3, r7, r3
 301 008e 1B78     		ldrb	r3, [r3]
 302 0090 022B     		cmp	r3, #2
 303 0092 07D1     		bne	.L17
  85:UART_XG.c     ****         {
  86:UART_XG.c     ****             indexe++;
 304              		.loc 1 86 0 is_stmt 1
 305 0094 3723     		movs	r3, #55
 306 0096 FB18     		adds	r3, r7, r3
 307 0098 1A78     		ldrb	r2, [r3]
 308 009a 3723     		movs	r3, #55
 309 009c FB18     		adds	r3, r7, r3
 310 009e 0132     		adds	r2, r2, #1
 311 00a0 1A70     		strb	r2, [r3]
ARM GAS  C:\Users\Laurent\AppData\Local\Temp\ccV7mqFv.s 			page 8


 312 00a2 31E0     		b	.L14
 313              	.L17:
  87:UART_XG.c     ****         }
  88:UART_XG.c     ****         else if ((*tmp8=='.') && (indexe==3))
 314              		.loc 1 88 0
 315 00a4 3B6B     		ldr	r3, [r7, #48]
 316 00a6 1B78     		ldrb	r3, [r3]
 317 00a8 2E2B     		cmp	r3, #46
 318 00aa 0CD1     		bne	.L18
 319              		.loc 1 88 0 is_stmt 0 discriminator 1
 320 00ac 3723     		movs	r3, #55
 321 00ae FB18     		adds	r3, r7, r3
 322 00b0 1B78     		ldrb	r3, [r3]
 323 00b2 032B     		cmp	r3, #3
 324 00b4 07D1     		bne	.L18
  89:UART_XG.c     ****         {
  90:UART_XG.c     ****             indexe++;
 325              		.loc 1 90 0 is_stmt 1
 326 00b6 3723     		movs	r3, #55
 327 00b8 FB18     		adds	r3, r7, r3
 328 00ba 1A78     		ldrb	r2, [r3]
 329 00bc 3723     		movs	r3, #55
 330 00be FB18     		adds	r3, r7, r3
 331 00c0 0132     		adds	r2, r2, #1
 332 00c2 1A70     		strb	r2, [r3]
 333 00c4 20E0     		b	.L14
 334              	.L18:
  91:UART_XG.c     ****         }
  92:UART_XG.c     ****         else if((indexe>3)&&(indexe<FRAME_SIZE)) // ??? 
 335              		.loc 1 92 0
 336 00c6 3723     		movs	r3, #55
 337 00c8 FB18     		adds	r3, r7, r3
 338 00ca 1B78     		ldrb	r3, [r3]
 339 00cc 032B     		cmp	r3, #3
 340 00ce 17D9     		bls	.L19
 341              		.loc 1 92 0 is_stmt 0 discriminator 1
 342 00d0 3723     		movs	r3, #55
 343 00d2 FB18     		adds	r3, r7, r3
 344 00d4 1B78     		ldrb	r3, [r3]
 345 00d6 292B     		cmp	r3, #41
 346 00d8 12D8     		bhi	.L19
  93:UART_XG.c     ****         {
  94:UART_XG.c     ****             rxdata[indexe-4]=*tmp8; 
 347              		.loc 1 94 0 is_stmt 1
 348 00da 3723     		movs	r3, #55
 349 00dc FB18     		adds	r3, r7, r3
 350 00de 1B78     		ldrb	r3, [r3]
 351 00e0 043B     		subs	r3, r3, #4
 352 00e2 3A6B     		ldr	r2, [r7, #48]
 353 00e4 1178     		ldrb	r1, [r2]
 354 00e6 3A1D     		adds	r2, r7, #4
 355 00e8 D154     		strb	r1, [r2, r3]
  95:UART_XG.c     ****             indexe++;
 356              		.loc 1 95 0
 357 00ea 3723     		movs	r3, #55
 358 00ec FB18     		adds	r3, r7, r3
 359 00ee 1A78     		ldrb	r2, [r3]
ARM GAS  C:\Users\Laurent\AppData\Local\Temp\ccV7mqFv.s 			page 9


 360 00f0 3723     		movs	r3, #55
 361 00f2 FB18     		adds	r3, r7, r3
 362 00f4 0132     		adds	r2, r2, #1
 363 00f6 1A70     		strb	r2, [r3]
 364 00f8 06E0     		b	.L14
 365              	.L28:
 366 00fa C046     		.align	2
 367              	.L27:
 368 00fc 00000000 		.word	time
 369              	.L19:
  96:UART_XG.c     ****         }
  97:UART_XG.c     ****         else
  98:UART_XG.c     ****         {
  99:UART_XG.c     ****             indexe=0;
 370              		.loc 1 99 0
 371 0100 3723     		movs	r3, #55
 372 0102 FB18     		adds	r3, r7, r3
 373 0104 0022     		movs	r2, #0
 374 0106 1A70     		strb	r2, [r3]
 375              	.L14:
  66:UART_XG.c     ****     {
 376              		.loc 1 66 0
 377 0108 3723     		movs	r3, #55
 378 010a FB18     		adds	r3, r7, r3
 379 010c 1B78     		ldrb	r3, [r3]
 380 010e 292B     		cmp	r3, #41
 381 0110 07D8     		bhi	.L20
  66:UART_XG.c     ****     {
 382              		.loc 1 66 0 is_stmt 0 discriminator 1
 383 0112 C44B     		ldr	r3, .L29
 384 0114 1A68     		ldr	r2, [r3]
 385 0116 FB6A     		ldr	r3, [r7, #44]
 386 0118 D31A     		subs	r3, r2, r3
 387 011a C34A     		ldr	r2, .L29+4
 388 011c 9342     		cmp	r3, r2
 389 011e 00D8     		bhi	.LCB334
 390 0120 7FE7     		b	.L21	@long jump
 391              	.LCB334:
 392              	.L20:
 100:UART_XG.c     ****         }  
 101:UART_XG.c     ****        } 
 102:UART_XG.c     ****     }
 103:UART_XG.c     ****     param.Tech=(rxdata[0]<<8)+rxdata[1];
 393              		.loc 1 103 0 is_stmt 1
 394 0122 3B1D     		adds	r3, r7, #4
 395 0124 1B78     		ldrb	r3, [r3]
 396 0126 9BB2     		uxth	r3, r3
 397 0128 1B02     		lsls	r3, r3, #8
 398 012a 9AB2     		uxth	r2, r3
 399 012c 3B1D     		adds	r3, r7, #4
 400 012e 5B78     		ldrb	r3, [r3, #1]
 401 0130 9BB2     		uxth	r3, r3
 402 0132 D318     		adds	r3, r2, r3
 403 0134 9AB2     		uxth	r2, r3
 404 0136 BD4B     		ldr	r3, .L29+8
 405 0138 1A80     		strh	r2, [r3]
 104:UART_XG.c     ****     param.nb_boucles=rxdata[2];
ARM GAS  C:\Users\Laurent\AppData\Local\Temp\ccV7mqFv.s 			page 10


 406              		.loc 1 104 0
 407 013a 3B1D     		adds	r3, r7, #4
 408 013c 9A78     		ldrb	r2, [r3, #2]
 409 013e BB4B     		ldr	r3, .L29+8
 410 0140 9A70     		strb	r2, [r3, #2]
 105:UART_XG.c     ****     param.Kp1_num=(rxdata[3]<<8)+rxdata[4];
 411              		.loc 1 105 0
 412 0142 3B1D     		adds	r3, r7, #4
 413 0144 DB78     		ldrb	r3, [r3, #3]
 414 0146 9BB2     		uxth	r3, r3
 415 0148 1B02     		lsls	r3, r3, #8
 416 014a 9AB2     		uxth	r2, r3
 417 014c 3B1D     		adds	r3, r7, #4
 418 014e 1B79     		ldrb	r3, [r3, #4]
 419 0150 9BB2     		uxth	r3, r3
 420 0152 D318     		adds	r3, r2, r3
 421 0154 9AB2     		uxth	r2, r3
 422 0156 B54B     		ldr	r3, .L29+8
 423 0158 9A80     		strh	r2, [r3, #4]
 106:UART_XG.c     ****     param.Kp1_den=(rxdata[5]<<8)+rxdata[6];
 424              		.loc 1 106 0
 425 015a 3B1D     		adds	r3, r7, #4
 426 015c 5B79     		ldrb	r3, [r3, #5]
 427 015e 9BB2     		uxth	r3, r3
 428 0160 1B02     		lsls	r3, r3, #8
 429 0162 9AB2     		uxth	r2, r3
 430 0164 3B1D     		adds	r3, r7, #4
 431 0166 9B79     		ldrb	r3, [r3, #6]
 432 0168 9BB2     		uxth	r3, r3
 433 016a D318     		adds	r3, r2, r3
 434 016c 9AB2     		uxth	r2, r3
 435 016e AF4B     		ldr	r3, .L29+8
 436 0170 DA80     		strh	r2, [r3, #6]
 107:UART_XG.c     ****     param.Kp2_num=(rxdata[7]<<8)+rxdata[8];
 437              		.loc 1 107 0
 438 0172 3B1D     		adds	r3, r7, #4
 439 0174 DB79     		ldrb	r3, [r3, #7]
 440 0176 9BB2     		uxth	r3, r3
 441 0178 1B02     		lsls	r3, r3, #8
 442 017a 9AB2     		uxth	r2, r3
 443 017c 3B1D     		adds	r3, r7, #4
 444 017e 1B7A     		ldrb	r3, [r3, #8]
 445 0180 9BB2     		uxth	r3, r3
 446 0182 D318     		adds	r3, r2, r3
 447 0184 9AB2     		uxth	r2, r3
 448 0186 A94B     		ldr	r3, .L29+8
 449 0188 1A81     		strh	r2, [r3, #8]
 108:UART_XG.c     ****     param.Kp2_den=(rxdata[9]<<8)+rxdata[10];
 450              		.loc 1 108 0
 451 018a 3B1D     		adds	r3, r7, #4
 452 018c 5B7A     		ldrb	r3, [r3, #9]
 453 018e 9BB2     		uxth	r3, r3
 454 0190 1B02     		lsls	r3, r3, #8
 455 0192 9AB2     		uxth	r2, r3
 456 0194 3B1D     		adds	r3, r7, #4
 457 0196 9B7A     		ldrb	r3, [r3, #10]
 458 0198 9BB2     		uxth	r3, r3
ARM GAS  C:\Users\Laurent\AppData\Local\Temp\ccV7mqFv.s 			page 11


 459 019a D318     		adds	r3, r2, r3
 460 019c 9AB2     		uxth	r2, r3
 461 019e A34B     		ldr	r3, .L29+8
 462 01a0 5A81     		strh	r2, [r3, #10]
 109:UART_XG.c     ****     param.Kd1_num=(rxdata[11]<<8)+rxdata[12];
 463              		.loc 1 109 0
 464 01a2 3B1D     		adds	r3, r7, #4
 465 01a4 DB7A     		ldrb	r3, [r3, #11]
 466 01a6 9BB2     		uxth	r3, r3
 467 01a8 1B02     		lsls	r3, r3, #8
 468 01aa 9AB2     		uxth	r2, r3
 469 01ac 3B1D     		adds	r3, r7, #4
 470 01ae 1B7B     		ldrb	r3, [r3, #12]
 471 01b0 9BB2     		uxth	r3, r3
 472 01b2 D318     		adds	r3, r2, r3
 473 01b4 9AB2     		uxth	r2, r3
 474 01b6 9D4B     		ldr	r3, .L29+8
 475 01b8 9A81     		strh	r2, [r3, #12]
 110:UART_XG.c     ****     param.Kd1_den=(rxdata[13]<<8)+rxdata[14];
 476              		.loc 1 110 0
 477 01ba 3B1D     		adds	r3, r7, #4
 478 01bc 5B7B     		ldrb	r3, [r3, #13]
 479 01be 9BB2     		uxth	r3, r3
 480 01c0 1B02     		lsls	r3, r3, #8
 481 01c2 9AB2     		uxth	r2, r3
 482 01c4 3B1D     		adds	r3, r7, #4
 483 01c6 9B7B     		ldrb	r3, [r3, #14]
 484 01c8 9BB2     		uxth	r3, r3
 485 01ca D318     		adds	r3, r2, r3
 486 01cc 9AB2     		uxth	r2, r3
 487 01ce 974B     		ldr	r3, .L29+8
 488 01d0 DA81     		strh	r2, [r3, #14]
 111:UART_XG.c     ****     param.Kd2_num=(rxdata[15]<<8)+rxdata[16];
 489              		.loc 1 111 0
 490 01d2 3B1D     		adds	r3, r7, #4
 491 01d4 DB7B     		ldrb	r3, [r3, #15]
 492 01d6 9BB2     		uxth	r3, r3
 493 01d8 1B02     		lsls	r3, r3, #8
 494 01da 9AB2     		uxth	r2, r3
 495 01dc 3B1D     		adds	r3, r7, #4
 496 01de 1B7C     		ldrb	r3, [r3, #16]
 497 01e0 9BB2     		uxth	r3, r3
 498 01e2 D318     		adds	r3, r2, r3
 499 01e4 9AB2     		uxth	r2, r3
 500 01e6 914B     		ldr	r3, .L29+8
 501 01e8 1A82     		strh	r2, [r3, #16]
 112:UART_XG.c     ****     param.Kd2_den=(rxdata[17]<<8)+rxdata[18];
 502              		.loc 1 112 0
 503 01ea 3B1D     		adds	r3, r7, #4
 504 01ec 5B7C     		ldrb	r3, [r3, #17]
 505 01ee 9BB2     		uxth	r3, r3
 506 01f0 1B02     		lsls	r3, r3, #8
 507 01f2 9AB2     		uxth	r2, r3
 508 01f4 3B1D     		adds	r3, r7, #4
 509 01f6 9B7C     		ldrb	r3, [r3, #18]
 510 01f8 9BB2     		uxth	r3, r3
 511 01fa D318     		adds	r3, r2, r3
ARM GAS  C:\Users\Laurent\AppData\Local\Temp\ccV7mqFv.s 			page 12


 512 01fc 9AB2     		uxth	r2, r3
 513 01fe 8B4B     		ldr	r3, .L29+8
 514 0200 5A82     		strh	r2, [r3, #18]
 113:UART_XG.c     ****     param.Ki1_num=(rxdata[19]<<8)+rxdata[20];
 515              		.loc 1 113 0
 516 0202 3B1D     		adds	r3, r7, #4
 517 0204 DB7C     		ldrb	r3, [r3, #19]
 518 0206 9BB2     		uxth	r3, r3
 519 0208 1B02     		lsls	r3, r3, #8
 520 020a 9AB2     		uxth	r2, r3
 521 020c 3B1D     		adds	r3, r7, #4
 522 020e 1B7D     		ldrb	r3, [r3, #20]
 523 0210 9BB2     		uxth	r3, r3
 524 0212 D318     		adds	r3, r2, r3
 525 0214 9AB2     		uxth	r2, r3
 526 0216 854B     		ldr	r3, .L29+8
 527 0218 9A82     		strh	r2, [r3, #20]
 114:UART_XG.c     ****     param.Ki1_den=(rxdata[21]<<8)+rxdata[22];
 528              		.loc 1 114 0
 529 021a 3B1D     		adds	r3, r7, #4
 530 021c 5B7D     		ldrb	r3, [r3, #21]
 531 021e 9BB2     		uxth	r3, r3
 532 0220 1B02     		lsls	r3, r3, #8
 533 0222 9AB2     		uxth	r2, r3
 534 0224 3B1D     		adds	r3, r7, #4
 535 0226 9B7D     		ldrb	r3, [r3, #22]
 536 0228 9BB2     		uxth	r3, r3
 537 022a D318     		adds	r3, r2, r3
 538 022c 9AB2     		uxth	r2, r3
 539 022e 7F4B     		ldr	r3, .L29+8
 540 0230 DA82     		strh	r2, [r3, #22]
 115:UART_XG.c     ****     param.Ki2_num=(rxdata[23]<<8)+rxdata[24];
 541              		.loc 1 115 0
 542 0232 3B1D     		adds	r3, r7, #4
 543 0234 DB7D     		ldrb	r3, [r3, #23]
 544 0236 9BB2     		uxth	r3, r3
 545 0238 1B02     		lsls	r3, r3, #8
 546 023a 9AB2     		uxth	r2, r3
 547 023c 3B1D     		adds	r3, r7, #4
 548 023e 1B7E     		ldrb	r3, [r3, #24]
 549 0240 9BB2     		uxth	r3, r3
 550 0242 D318     		adds	r3, r2, r3
 551 0244 9AB2     		uxth	r2, r3
 552 0246 794B     		ldr	r3, .L29+8
 553 0248 1A83     		strh	r2, [r3, #24]
 116:UART_XG.c     ****     param.Ki2_den=(rxdata[25]<<8)+rxdata[26];
 554              		.loc 1 116 0
 555 024a 3B1D     		adds	r3, r7, #4
 556 024c 5B7E     		ldrb	r3, [r3, #25]
 557 024e 9BB2     		uxth	r3, r3
 558 0250 1B02     		lsls	r3, r3, #8
 559 0252 9AB2     		uxth	r2, r3
 560 0254 3B1D     		adds	r3, r7, #4
 561 0256 9B7E     		ldrb	r3, [r3, #26]
 562 0258 9BB2     		uxth	r3, r3
 563 025a D318     		adds	r3, r2, r3
 564 025c 9AB2     		uxth	r2, r3
ARM GAS  C:\Users\Laurent\AppData\Local\Temp\ccV7mqFv.s 			page 13


 565 025e 734B     		ldr	r3, .L29+8
 566 0260 5A83     		strh	r2, [r3, #26]
 117:UART_XG.c     ****     param.type_consigne=rxdata[27];
 567              		.loc 1 117 0
 568 0262 3B1D     		adds	r3, r7, #4
 569 0264 DA7E     		ldrb	r2, [r3, #27]
 570 0266 714B     		ldr	r3, .L29+8
 571 0268 1A77     		strb	r2, [r3, #28]
 118:UART_XG.c     ****     param.cons_initiale=(rxdata[28]<<8)+rxdata[29];
 572              		.loc 1 118 0
 573 026a 3B1D     		adds	r3, r7, #4
 574 026c 1B7F     		ldrb	r3, [r3, #28]
 575 026e 9BB2     		uxth	r3, r3
 576 0270 1B02     		lsls	r3, r3, #8
 577 0272 9AB2     		uxth	r2, r3
 578 0274 3B1D     		adds	r3, r7, #4
 579 0276 5B7F     		ldrb	r3, [r3, #29]
 580 0278 9BB2     		uxth	r3, r3
 581 027a D318     		adds	r3, r2, r3
 582 027c 9BB2     		uxth	r3, r3
 583 027e 1AB2     		sxth	r2, r3
 584 0280 6A4B     		ldr	r3, .L29+8
 585 0282 DA83     		strh	r2, [r3, #30]
 119:UART_XG.c     ****     param.cons_finale=(rxdata[30]<<8)+rxdata[31];
 586              		.loc 1 119 0
 587 0284 3B1D     		adds	r3, r7, #4
 588 0286 9B7F     		ldrb	r3, [r3, #30]
 589 0288 9BB2     		uxth	r3, r3
 590 028a 1B02     		lsls	r3, r3, #8
 591 028c 9AB2     		uxth	r2, r3
 592 028e 3B1D     		adds	r3, r7, #4
 593 0290 DB7F     		ldrb	r3, [r3, #31]
 594 0292 9BB2     		uxth	r3, r3
 595 0294 D318     		adds	r3, r2, r3
 596 0296 9BB2     		uxth	r3, r3
 597 0298 1AB2     		sxth	r2, r3
 598 029a 644B     		ldr	r3, .L29+8
 599 029c 1A84     		strh	r2, [r3, #32]
 120:UART_XG.c     ****     param.cons_per_num=(rxdata[32]<<8)+rxdata[33];
 600              		.loc 1 120 0
 601 029e 3B1D     		adds	r3, r7, #4
 602 02a0 2022     		movs	r2, #32
 603 02a2 9B5C     		ldrb	r3, [r3, r2]
 604 02a4 9BB2     		uxth	r3, r3
 605 02a6 1B02     		lsls	r3, r3, #8
 606 02a8 9AB2     		uxth	r2, r3
 607 02aa 3B1D     		adds	r3, r7, #4
 608 02ac 2121     		movs	r1, #33
 609 02ae 5B5C     		ldrb	r3, [r3, r1]
 610 02b0 9BB2     		uxth	r3, r3
 611 02b2 D318     		adds	r3, r2, r3
 612 02b4 9AB2     		uxth	r2, r3
 613 02b6 5D4B     		ldr	r3, .L29+8
 614 02b8 5A84     		strh	r2, [r3, #34]
 121:UART_XG.c     ****     param.cons_per_den=(rxdata[34]<<8)+rxdata[35];
 615              		.loc 1 121 0
 616 02ba 3B1D     		adds	r3, r7, #4
ARM GAS  C:\Users\Laurent\AppData\Local\Temp\ccV7mqFv.s 			page 14


 617 02bc 2222     		movs	r2, #34
 618 02be 9B5C     		ldrb	r3, [r3, r2]
 619 02c0 9BB2     		uxth	r3, r3
 620 02c2 1B02     		lsls	r3, r3, #8
 621 02c4 9AB2     		uxth	r2, r3
 622 02c6 3B1D     		adds	r3, r7, #4
 623 02c8 2321     		movs	r1, #35
 624 02ca 5B5C     		ldrb	r3, [r3, r1]
 625 02cc 9BB2     		uxth	r3, r3
 626 02ce D318     		adds	r3, r2, r3
 627 02d0 9AB2     		uxth	r2, r3
 628 02d2 564B     		ldr	r3, .L29+8
 629 02d4 9A84     		strh	r2, [r3, #36]
 122:UART_XG.c     ****     param.CRC=(rxdata[36]<<8)+(rxdata[37]);
 630              		.loc 1 122 0
 631 02d6 3B1D     		adds	r3, r7, #4
 632 02d8 2422     		movs	r2, #36
 633 02da 9B5C     		ldrb	r3, [r3, r2]
 634 02dc 9BB2     		uxth	r3, r3
 635 02de 1B02     		lsls	r3, r3, #8
 636 02e0 9AB2     		uxth	r2, r3
 637 02e2 3B1D     		adds	r3, r7, #4
 638 02e4 2521     		movs	r1, #37
 639 02e6 5B5C     		ldrb	r3, [r3, r1]
 640 02e8 9BB2     		uxth	r3, r3
 641 02ea D318     		adds	r3, r2, r3
 642 02ec 9AB2     		uxth	r2, r3
 643 02ee 4F4B     		ldr	r3, .L29+8
 644 02f0 DA84     		strh	r2, [r3, #38]
 123:UART_XG.c     ****     CRCcalc= param.Tech^param.Kp1_num^param.Kp1_den^param.Kp2_num^param.Kp2_den^ \
 645              		.loc 1 123 0
 646 02f2 4E4B     		ldr	r3, .L29+8
 647 02f4 1B88     		ldrh	r3, [r3]
 648 02f6 9AB2     		uxth	r2, r3
 649 02f8 4C4B     		ldr	r3, .L29+8
 650 02fa 9B88     		ldrh	r3, [r3, #4]
 651 02fc 9BB2     		uxth	r3, r3
 652 02fe 5340     		eors	r3, r2
 653 0300 9AB2     		uxth	r2, r3
 654 0302 4A4B     		ldr	r3, .L29+8
 655 0304 DB88     		ldrh	r3, [r3, #6]
 656 0306 9BB2     		uxth	r3, r3
 657 0308 5340     		eors	r3, r2
 658 030a 9AB2     		uxth	r2, r3
 659 030c 474B     		ldr	r3, .L29+8
 660 030e 1B89     		ldrh	r3, [r3, #8]
 661 0310 9BB2     		uxth	r3, r3
 662 0312 5340     		eors	r3, r2
 663 0314 9AB2     		uxth	r2, r3
 664 0316 454B     		ldr	r3, .L29+8
 665 0318 5B89     		ldrh	r3, [r3, #10]
 666 031a 9BB2     		uxth	r3, r3
 667 031c 5340     		eors	r3, r2
 668 031e 9AB2     		uxth	r2, r3
 124:UART_XG.c     ****             param.Ki1_num^param.Ki1_den^param.Ki2_num^param.Ki2_den^param.Kd1_num^param.Kd1_den^ \
 669              		.loc 1 124 0
 670 0320 424B     		ldr	r3, .L29+8
ARM GAS  C:\Users\Laurent\AppData\Local\Temp\ccV7mqFv.s 			page 15


 671 0322 9B8A     		ldrh	r3, [r3, #20]
 672 0324 9BB2     		uxth	r3, r3
 123:UART_XG.c     ****     CRCcalc= param.Tech^param.Kp1_num^param.Kp1_den^param.Kp2_num^param.Kp2_den^ \
 673              		.loc 1 123 0
 674 0326 5340     		eors	r3, r2
 675 0328 9AB2     		uxth	r2, r3
 676              		.loc 1 124 0
 677 032a 404B     		ldr	r3, .L29+8
 678 032c DB8A     		ldrh	r3, [r3, #22]
 679 032e 9BB2     		uxth	r3, r3
 123:UART_XG.c     ****     CRCcalc= param.Tech^param.Kp1_num^param.Kp1_den^param.Kp2_num^param.Kp2_den^ \
 680              		.loc 1 123 0
 681 0330 5340     		eors	r3, r2
 682 0332 9AB2     		uxth	r2, r3
 683              		.loc 1 124 0
 684 0334 3D4B     		ldr	r3, .L29+8
 685 0336 1B8B     		ldrh	r3, [r3, #24]
 686 0338 9BB2     		uxth	r3, r3
 123:UART_XG.c     ****     CRCcalc= param.Tech^param.Kp1_num^param.Kp1_den^param.Kp2_num^param.Kp2_den^ \
 687              		.loc 1 123 0
 688 033a 5340     		eors	r3, r2
 689 033c 9AB2     		uxth	r2, r3
 690              		.loc 1 124 0
 691 033e 3B4B     		ldr	r3, .L29+8
 692 0340 5B8B     		ldrh	r3, [r3, #26]
 693 0342 9BB2     		uxth	r3, r3
 123:UART_XG.c     ****     CRCcalc= param.Tech^param.Kp1_num^param.Kp1_den^param.Kp2_num^param.Kp2_den^ \
 694              		.loc 1 123 0
 695 0344 5340     		eors	r3, r2
 696 0346 9AB2     		uxth	r2, r3
 697              		.loc 1 124 0
 698 0348 384B     		ldr	r3, .L29+8
 699 034a 9B89     		ldrh	r3, [r3, #12]
 700 034c 9BB2     		uxth	r3, r3
 123:UART_XG.c     ****     CRCcalc= param.Tech^param.Kp1_num^param.Kp1_den^param.Kp2_num^param.Kp2_den^ \
 701              		.loc 1 123 0
 702 034e 5340     		eors	r3, r2
 703 0350 9AB2     		uxth	r2, r3
 704              		.loc 1 124 0
 705 0352 364B     		ldr	r3, .L29+8
 706 0354 DB89     		ldrh	r3, [r3, #14]
 707 0356 9BB2     		uxth	r3, r3
 123:UART_XG.c     ****     CRCcalc= param.Tech^param.Kp1_num^param.Kp1_den^param.Kp2_num^param.Kp2_den^ \
 708              		.loc 1 123 0
 709 0358 5340     		eors	r3, r2
 710 035a 9AB2     		uxth	r2, r3
 125:UART_XG.c     ****             param.Kd1_num^param.Kd1_den^param.Kp2_num^param.cons_initiale^   \
 711              		.loc 1 125 0
 712 035c 334B     		ldr	r3, .L29+8
 713 035e 9B89     		ldrh	r3, [r3, #12]
 714 0360 9BB2     		uxth	r3, r3
 123:UART_XG.c     ****     CRCcalc= param.Tech^param.Kp1_num^param.Kp1_den^param.Kp2_num^param.Kp2_den^ \
 715              		.loc 1 123 0
 716 0362 5340     		eors	r3, r2
 717 0364 9AB2     		uxth	r2, r3
 718              		.loc 1 125 0
 719 0366 314B     		ldr	r3, .L29+8
ARM GAS  C:\Users\Laurent\AppData\Local\Temp\ccV7mqFv.s 			page 16


 720 0368 DB89     		ldrh	r3, [r3, #14]
 721 036a 9BB2     		uxth	r3, r3
 123:UART_XG.c     ****     CRCcalc= param.Tech^param.Kp1_num^param.Kp1_den^param.Kp2_num^param.Kp2_den^ \
 722              		.loc 1 123 0
 723 036c 5340     		eors	r3, r2
 724 036e 9AB2     		uxth	r2, r3
 725              		.loc 1 125 0
 726 0370 2E4B     		ldr	r3, .L29+8
 727 0372 1B89     		ldrh	r3, [r3, #8]
 728 0374 9BB2     		uxth	r3, r3
 123:UART_XG.c     ****     CRCcalc= param.Tech^param.Kp1_num^param.Kp1_den^param.Kp2_num^param.Kp2_den^ \
 729              		.loc 1 123 0
 730 0376 5340     		eors	r3, r2
 731 0378 9BB2     		uxth	r3, r3
 732 037a 1AB2     		sxth	r2, r3
 733              		.loc 1 125 0
 734 037c 2B4B     		ldr	r3, .L29+8
 735 037e DB8B     		ldrh	r3, [r3, #30]
 736 0380 1BB2     		sxth	r3, r3
 123:UART_XG.c     ****     CRCcalc= param.Tech^param.Kp1_num^param.Kp1_den^param.Kp2_num^param.Kp2_den^ \
 737              		.loc 1 123 0
 738 0382 5340     		eors	r3, r2
 739 0384 1AB2     		sxth	r2, r3
 126:UART_XG.c     ****             param.cons_finale^param.cons_per_den^param.cons_per_num^((param.nb_boucles<<8)+param.ty
 740              		.loc 1 126 0
 741 0386 294B     		ldr	r3, .L29+8
 742 0388 1B8C     		ldrh	r3, [r3, #32]
 743 038a 1BB2     		sxth	r3, r3
 123:UART_XG.c     ****             param.Ki1_num^param.Ki1_den^param.Ki2_num^param.Ki2_den^param.Kd1_num^param.Kd1_den^ \
 744              		.loc 1 123 0
 745 038c 5340     		eors	r3, r2
 746 038e 1AB2     		sxth	r2, r3
 747              		.loc 1 126 0
 748 0390 264B     		ldr	r3, .L29+8
 749 0392 9B8C     		ldrh	r3, [r3, #36]
 750 0394 9BB2     		uxth	r3, r3
 123:UART_XG.c     ****             param.Ki1_num^param.Ki1_den^param.Ki2_num^param.Ki2_den^param.Kd1_num^param.Kd1_den^ \
 751              		.loc 1 123 0
 752 0396 1BB2     		sxth	r3, r3
 753 0398 5340     		eors	r3, r2
 754 039a 1AB2     		sxth	r2, r3
 755              		.loc 1 126 0
 756 039c 234B     		ldr	r3, .L29+8
 757 039e 5B8C     		ldrh	r3, [r3, #34]
 758 03a0 9BB2     		uxth	r3, r3
 123:UART_XG.c     ****             param.Ki1_num^param.Ki1_den^param.Ki2_num^param.Ki2_den^param.Kd1_num^param.Kd1_den^ \
 759              		.loc 1 123 0
 760 03a2 1BB2     		sxth	r3, r3
 761 03a4 5340     		eors	r3, r2
 762 03a6 1AB2     		sxth	r2, r3
 763              		.loc 1 126 0
 764 03a8 204B     		ldr	r3, .L29+8
 765 03aa 9B78     		ldrb	r3, [r3, #2]
 766 03ac DBB2     		uxtb	r3, r3
 123:UART_XG.c     ****             param.Ki1_num^param.Ki1_den^param.Ki2_num^param.Ki2_den^param.Kd1_num^param.Kd1_den^ \
 767              		.loc 1 123 0
 768 03ae 9BB2     		uxth	r3, r3
ARM GAS  C:\Users\Laurent\AppData\Local\Temp\ccV7mqFv.s 			page 17


 769 03b0 1B02     		lsls	r3, r3, #8
 770 03b2 99B2     		uxth	r1, r3
 771              		.loc 1 126 0
 772 03b4 1D4B     		ldr	r3, .L29+8
 773 03b6 1B7F     		ldrb	r3, [r3, #28]
 774 03b8 DBB2     		uxtb	r3, r3
 123:UART_XG.c     ****             param.Ki1_num^param.Ki1_den^param.Ki2_num^param.Ki2_den^param.Kd1_num^param.Kd1_den^ \
 775              		.loc 1 123 0
 776 03ba 9BB2     		uxth	r3, r3
 777 03bc CB18     		adds	r3, r1, r3
 778 03be 9BB2     		uxth	r3, r3
 779 03c0 1BB2     		sxth	r3, r3
 780 03c2 5340     		eors	r3, r2
 781 03c4 1AB2     		sxth	r2, r3
 782 03c6 2A23     		movs	r3, #42
 783 03c8 FB18     		adds	r3, r7, r3
 784 03ca 1A80     		strh	r2, [r3]
 127:UART_XG.c     ****     if(CRCcalc==param.CRC)
 785              		.loc 1 127 0
 786 03cc 174B     		ldr	r3, .L29+8
 787 03ce DB8C     		ldrh	r3, [r3, #38]
 788 03d0 9BB2     		uxth	r3, r3
 789 03d2 2A22     		movs	r2, #42
 790 03d4 BA18     		adds	r2, r7, r2
 791 03d6 1288     		ldrh	r2, [r2]
 792 03d8 9A42     		cmp	r2, r3
 793 03da 18D1     		bne	.L22
 128:UART_XG.c     ****             {
 129:UART_XG.c     ****                 ok=true;
 794              		.loc 1 129 0
 795 03dc 3623     		movs	r3, #54
 796 03de FB18     		adds	r3, r7, r3
 797 03e0 0122     		movs	r2, #1
 798 03e2 1A70     		strb	r2, [r3]
 130:UART_XG.c     ****                 if(param.nb_boucles>=128) 
 799              		.loc 1 130 0
 800 03e4 114B     		ldr	r3, .L29+8
 801 03e6 9B78     		ldrb	r3, [r3, #2]
 802 03e8 DBB2     		uxtb	r3, r3
 803 03ea 5BB2     		sxtb	r3, r3
 804 03ec 002B     		cmp	r3, #0
 805 03ee 0ADA     		bge	.L23
 131:UART_XG.c     ****                 {
 132:UART_XG.c     ****                     param.nb_boucles-=128;
 806              		.loc 1 132 0
 807 03f0 0E4B     		ldr	r3, .L29+8
 808 03f2 9B78     		ldrb	r3, [r3, #2]
 809 03f4 DBB2     		uxtb	r3, r3
 810 03f6 803B     		subs	r3, r3, #128
 811 03f8 DAB2     		uxtb	r2, r3
 812 03fa 0C4B     		ldr	r3, .L29+8
 813 03fc 9A70     		strb	r2, [r3, #2]
 133:UART_XG.c     ****                     marche_bool=true;
 814              		.loc 1 133 0
 815 03fe 0C4B     		ldr	r3, .L29+12
 816 0400 0122     		movs	r2, #1
 817 0402 1A70     		strb	r2, [r3]
ARM GAS  C:\Users\Laurent\AppData\Local\Temp\ccV7mqFv.s 			page 18


 818 0404 07E0     		b	.L25
 819              	.L23:
 134:UART_XG.c     ****                 }
 135:UART_XG.c     ****                 else 
 136:UART_XG.c     ****                 {
 137:UART_XG.c     ****                     marche_bool=false;
 820              		.loc 1 137 0
 821 0406 0A4B     		ldr	r3, .L29+12
 822 0408 0022     		movs	r2, #0
 823 040a 1A70     		strb	r2, [r3]
 824 040c 03E0     		b	.L25
 825              	.L22:
 138:UART_XG.c     ****                 }
 139:UART_XG.c     ****             }
 140:UART_XG.c     ****             else
 141:UART_XG.c     ****             {
 142:UART_XG.c     ****                 ok=false;
 826              		.loc 1 142 0
 827 040e 3623     		movs	r3, #54
 828 0410 FB18     		adds	r3, r7, r3
 829 0412 0022     		movs	r2, #0
 830 0414 1A70     		strb	r2, [r3]
 831              	.L25:
 143:UART_XG.c     ****             }
 144:UART_XG.c     ****     return ok;
 832              		.loc 1 144 0
 833 0416 3623     		movs	r3, #54
 834 0418 FB18     		adds	r3, r7, r3
 835 041a 1B78     		ldrb	r3, [r3]
 145:UART_XG.c     **** }
 836              		.loc 1 145 0
 837 041c 1800     		movs	r0, r3
 838 041e BD46     		mov	sp, r7
 839 0420 0EB0     		add	sp, sp, #56
 840              		@ sp needed
 841 0422 80BD     		pop	{r7, pc}
 842              	.L30:
 843              		.align	2
 844              	.L29:
 845 0424 00000000 		.word	time
 846 0428 E7030000 		.word	999
 847 042c 00000000 		.word	param
 848 0430 00000000 		.word	marche_bool
 849              		.cfi_endproc
 850              	.LFE33:
 851              		.size	Get_trame, .-Get_trame
 852              		.text
 853              	.Letext0:
 854              		.file 2 "Generated_Source\\PSoC4/cytypes.h"
 855              		.file 3 "proj_types.h"
 856              		.file 4 "UART_XG.h"