ARM GAS  C:\Users\Laurent\AppData\Local\Temp\ccV7mqFv.s 			page 1


   1              		.syntax unified
   2              		.cpu cortex-m0
   3              		.fpu softvfp
   4              		.eabi_attribute 20, 1
   5              		.eabi_attribute 21, 1
   6              		.eabi_attribute 23, 3
   7              		.eabi_attribute 24, 1
   8              		.eabi_attribute 25, 1
   9              		.eabi_attribute 26, 1
  10              		.eabi_attribute 30, 6
  11              		.eabi_attribute 34, 0
  12              		.eabi_attribute 18, 4
  13              		.thumb
  14              		.syntax unified
  15              		.file	"UART_XG.c"
  16              		.text
  17              	.Ltext0:
  18              		.cfi_sections	.debug_frame
  19              		.section	.text.Get_trame_matlab,"ax",%progbits
  20              		.align	2
  21              		.global	Get_trame_matlab
  22              		.code	16
  23              		.thumb_func
  24              		.type	Get_trame_matlab, %function
  25              	Get_trame_matlab:
  26              	.LFB32:
  27              		.file 1 "UART_XG.c"
   1:UART_XG.c     **** /* ========================================
   2:UART_XG.c     ****  *
   3:UART_XG.c     ****  * Copyright YOUR COMPANY, THE YEAR
   4:UART_XG.c     ****  * All Rights Reserved
   5:UART_XG.c     ****  * UNPUBLISHED, LICENSED SOFTWARE.
   6:UART_XG.c     ****  *
   7:UART_XG.c     ****  * CONFIDENTIAL AND PROPRIETARY INFORMATION
   8:UART_XG.c     ****  * WHICH IS THE PROPERTY OF your company.
   9:UART_XG.c     ****  *
  10:UART_XG.c     ****  * ========================================
  11:UART_XG.c     **** */
  12:UART_XG.c     **** #include "UART_XG.h"
  13:UART_XG.c     **** int32 Get_trame_matlab()
  14:UART_XG.c     **** {
  28              		.loc 1 14 0
  29              		.cfi_startproc
  30              		@ args = 0, pretend = 0, frame = 56
  31              		@ frame_needed = 1, uses_anonymous_args = 0
  32 0000 80B5     		push	{r7, lr}
  33              		.cfi_def_cfa_offset 8
  34              		.cfi_offset 7, -8
  35              		.cfi_offset 14, -4
  36 0002 8EB0     		sub	sp, sp, #56
  37              		.cfi_def_cfa_offset 64
  38 0004 00AF     		add	r7, sp, #0
  39              		.cfi_def_cfa_register 7
  15:UART_XG.c     ****     uint8 indexe,*tmp8;
  16:UART_XG.c     ****     uint8 rxdata[FRAME_SIZE-2];
  17:UART_XG.c     ****     uint32 tmp32,debut;
  18:UART_XG.c     ****     tmp8 =(uint8*) &tmp32;
ARM GAS  C:\Users\Laurent\AppData\Local\Temp\ccV7mqFv.s 			page 2


  40              		.loc 1 18 0
  41 0006 3B00     		movs	r3, r7
  42 0008 3B63     		str	r3, [r7, #48]
  19:UART_XG.c     ****     indexe=0;
  43              		.loc 1 19 0
  44 000a 3723     		movs	r3, #55
  45 000c FB18     		adds	r3, r7, r3
  46 000e 0022     		movs	r2, #0
  47 0010 1A70     		strb	r2, [r3]
  20:UART_XG.c     ****     debut=time;
  48              		.loc 1 20 0
  49 0012 374B     		ldr	r3, .L11
  50 0014 1B68     		ldr	r3, [r3]
  51 0016 FB62     		str	r3, [r7, #44]
  21:UART_XG.c     ****     while((indexe<FRAME_SIZE_MATLAB)&&((time-debut)<UART_TIMEOUT))
  52              		.loc 1 21 0
  53 0018 4CE0     		b	.L2
  54              	.L7:
  22:UART_XG.c     ****     {
  23:UART_XG.c     ****       tmp32 = UART_UartGetByte();
  55              		.loc 1 23 0
  56 001a FFF7FEFF 		bl	UART_UartGetByte
  57 001e 0300     		movs	r3, r0
  58 0020 3B60     		str	r3, [r7]
  24:UART_XG.c     ****       if (tmp32>255)
  59              		.loc 1 24 0
  60 0022 3B68     		ldr	r3, [r7]
  61 0024 3722     		movs	r2, #55
  62 0026 BA18     		adds	r2, r7, r2
  63 0028 3721     		movs	r1, #55
  64 002a 7918     		adds	r1, r7, r1
  65 002c 0978     		ldrb	r1, [r1]
  66 002e 1170     		strb	r1, [r2]
  67 0030 FF2B     		cmp	r3, #255
  68 0032 3FD8     		bhi	.L2
  25:UART_XG.c     ****       {
  26:UART_XG.c     ****       //   UART_UartPutString("Buffer eror ok\r\n");
  27:UART_XG.c     ****        // indexe=0;
  28:UART_XG.c     ****       }    
  29:UART_XG.c     ****       else 
  30:UART_XG.c     ****       {
  31:UART_XG.c     ****         if ((*tmp8=='M') && (indexe==0))
  69              		.loc 1 31 0
  70 0034 3B6B     		ldr	r3, [r7, #48]
  71 0036 1B78     		ldrb	r3, [r3]
  72 0038 4D2B     		cmp	r3, #77
  73 003a 0CD1     		bne	.L3
  74              		.loc 1 31 0 is_stmt 0 discriminator 1
  75 003c 3723     		movs	r3, #55
  76 003e FB18     		adds	r3, r7, r3
  77 0040 1B78     		ldrb	r3, [r3]
  78 0042 002B     		cmp	r3, #0
  79 0044 07D1     		bne	.L3
  32:UART_XG.c     ****         {
  33:UART_XG.c     ****             indexe++;
  80              		.loc 1 33 0 is_stmt 1
  81 0046 3723     		movs	r3, #55
ARM GAS  C:\Users\Laurent\AppData\Local\Temp\ccV7mqFv.s 			page 3


  82 0048 FB18     		adds	r3, r7, r3
  83 004a 1A78     		ldrb	r2, [r3]
  84 004c 3723     		movs	r3, #55
  85 004e FB18     		adds	r3, r7, r3
  86 0050 0132     		adds	r2, r2, #1
  87 0052 1A70     		strb	r2, [r3]
  88 0054 2EE0     		b	.L2
  89              	.L3:
  34:UART_XG.c     ****         }
  35:UART_XG.c     ****         else if ((*tmp8=='M') && (indexe==1))
  90              		.loc 1 35 0
  91 0056 3B6B     		ldr	r3, [r7, #48]
  92 0058 1B78     		ldrb	r3, [r3]
  93 005a 4D2B     		cmp	r3, #77
  94 005c 0CD1     		bne	.L4
  95              		.loc 1 35 0 is_stmt 0 discriminator 1
  96 005e 3723     		movs	r3, #55
  97 0060 FB18     		adds	r3, r7, r3
  98 0062 1B78     		ldrb	r3, [r3]
  99 0064 012B     		cmp	r3, #1
 100 0066 07D1     		bne	.L4
  36:UART_XG.c     ****         {
  37:UART_XG.c     ****             indexe++;
 101              		.loc 1 37 0 is_stmt 1
 102 0068 3723     		movs	r3, #55
 103 006a FB18     		adds	r3, r7, r3
 104 006c 1A78     		ldrb	r2, [r3]
 105 006e 3723     		movs	r3, #55
 106 0070 FB18     		adds	r3, r7, r3
 107 0072 0132     		adds	r2, r2, #1
 108 0074 1A70     		strb	r2, [r3]
 109 0076 1DE0     		b	.L2
 110              	.L4:
  38:UART_XG.c     ****         }
  39:UART_XG.c     ****         else if((indexe>1)&&(indexe<FRAME_SIZE_MATLAB)) // ??? 
 111              		.loc 1 39 0
 112 0078 3723     		movs	r3, #55
 113 007a FB18     		adds	r3, r7, r3
 114 007c 1B78     		ldrb	r3, [r3]
 115 007e 012B     		cmp	r3, #1
 116 0080 14D9     		bls	.L5
 117              		.loc 1 39 0 is_stmt 0 discriminator 1
 118 0082 3723     		movs	r3, #55
 119 0084 FB18     		adds	r3, r7, r3
 120 0086 1B78     		ldrb	r3, [r3]
 121 0088 032B     		cmp	r3, #3
 122 008a 0FD8     		bhi	.L5
  40:UART_XG.c     ****         {
  41:UART_XG.c     ****             rxdata[indexe-2]=*tmp8; 
 123              		.loc 1 41 0 is_stmt 1
 124 008c 3723     		movs	r3, #55
 125 008e FB18     		adds	r3, r7, r3
 126 0090 1B78     		ldrb	r3, [r3]
 127 0092 023B     		subs	r3, r3, #2
 128 0094 3A6B     		ldr	r2, [r7, #48]
 129 0096 1178     		ldrb	r1, [r2]
 130 0098 3A1D     		adds	r2, r7, #4
ARM GAS  C:\Users\Laurent\AppData\Local\Temp\ccV7mqFv.s 			page 4


 131 009a D154     		strb	r1, [r2, r3]
  42:UART_XG.c     ****             indexe++;
 132              		.loc 1 42 0
 133 009c 3723     		movs	r3, #55
 134 009e FB18     		adds	r3, r7, r3
 135 00a0 1A78     		ldrb	r2, [r3]
 136 00a2 3723     		movs	r3, #55
 137 00a4 FB18     		adds	r3, r7, r3
 138 00a6 0132     		adds	r2, r2, #1
 139 00a8 1A70     		strb	r2, [r3]
 140 00aa 03E0     		b	.L2
 141              	.L5:
  43:UART_XG.c     ****         }
  44:UART_XG.c     ****         else
  45:UART_XG.c     ****         {
  46:UART_XG.c     ****             indexe=0;
 142              		.loc 1 46 0
 143 00ac 3723     		movs	r3, #55
 144 00ae FB18     		adds	r3, r7, r3
 145 00b0 0022     		movs	r2, #0
 146 00b2 1A70     		strb	r2, [r3]
 147              	.L2:
  21:UART_XG.c     ****     {
 148              		.loc 1 21 0
 149 00b4 3723     		movs	r3, #55
 150 00b6 FB18     		adds	r3, r7, r3
 151 00b8 1B78     		ldrb	r3, [r3]
 152 00ba 032B     		cmp	r3, #3
 153 00bc 06D8     		bhi	.L6
  21:UART_XG.c     ****     {
 154              		.loc 1 21 0 is_stmt 0 discriminator 1
 155 00be 0C4B     		ldr	r3, .L11
 156 00c0 1A68     		ldr	r2, [r3]
 157 00c2 FB6A     		ldr	r3, [r7, #44]
 158 00c4 D31A     		subs	r3, r2, r3
 159 00c6 0B4A     		ldr	r2, .L11+4
 160 00c8 9342     		cmp	r3, r2
 161 00ca A6D9     		bls	.L7
 162              	.L6:
  47:UART_XG.c     ****         }  
  48:UART_XG.c     ****        } 
  49:UART_XG.c     ****     }
  50:UART_XG.c     ****     if(indexe==3) return (rxdata[0]<<8)+rxdata[1];
 163              		.loc 1 50 0 is_stmt 1
 164 00cc 3723     		movs	r3, #55
 165 00ce FB18     		adds	r3, r7, r3
 166 00d0 1B78     		ldrb	r3, [r3]
 167 00d2 032B     		cmp	r3, #3
 168 00d4 06D1     		bne	.L8
 169              		.loc 1 50 0 is_stmt 0 discriminator 1
 170 00d6 3B1D     		adds	r3, r7, #4
 171 00d8 1B78     		ldrb	r3, [r3]
 172 00da 1B02     		lsls	r3, r3, #8
 173 00dc 3A1D     		adds	r2, r7, #4
 174 00de 5278     		ldrb	r2, [r2, #1]
 175 00e0 9B18     		adds	r3, r3, r2
 176 00e2 00E0     		b	.L10
ARM GAS  C:\Users\Laurent\AppData\Local\Temp\ccV7mqFv.s 			page 5


 177              	.L8:
  51:UART_XG.c     ****     else return 0;
 178              		.loc 1 51 0 is_stmt 1
 179 00e4 0023     		movs	r3, #0
 180              	.L10:
  52:UART_XG.c     **** }
 181              		.loc 1 52 0 discriminator 1
 182 00e6 1800     		movs	r0, r3
 183 00e8 BD46     		mov	sp, r7
 184 00ea 0EB0     		add	sp, sp, #56
 185              		@ sp needed
 186 00ec 80BD     		pop	{r7, pc}
 187              	.L12:
 188 00ee C046     		.align	2
 189              	.L11:
 190 00f0 00000000 		.word	time
 191 00f4 E7030000 		.word	999
 192              		.cfi_endproc
 193              	.LFE32:
 194              		.size	Get_trame_matlab, .-Get_trame_matlab
 195              		.section	.text.Get_trame,"ax",%progbits
 196              		.align	2
 197              		.global	Get_trame
 198              		.code	16
 199              		.thumb_func
 200              		.type	Get_trame, %function
 201              	Get_trame:
 202              	.LFB33:
  53:UART_XG.c     **** 
  54:UART_XG.c     **** uint8 Get_trame() // uint8 *rxdata)
  55:UART_XG.c     **** {
 203              		.loc 1 55 0
 204              		.cfi_startproc
 205              		@ args = 0, pretend = 0, frame = 56
 206              		@ frame_needed = 1, uses_anonymous_args = 0
 207 0000 80B5     		push	{r7, lr}
 208              		.cfi_def_cfa_offset 8
 209              		.cfi_offset 7, -8
 210              		.cfi_offset 14, -4
 211 0002 8EB0     		sub	sp, sp, #56
 212              		.cfi_def_cfa_offset 64
 213 0004 00AF     		add	r7, sp, #0
 214              		.cfi_def_cfa_register 7
  56:UART_XG.c     **** 
  57:UART_XG.c     ****     uint8 indexe,*tmp8,ok;
  58:UART_XG.c     ****     uint8 rxdata[FRAME_SIZE-4];
  59:UART_XG.c     ****     uint16 CRCcalc;
  60:UART_XG.c     ****     uint32 tmp32,debut;
  61:UART_XG.c     ****     tmp8 =(uint8*) &tmp32;
 215              		.loc 1 61 0
 216 0006 3B00     		movs	r3, r7
 217 0008 3B63     		str	r3, [r7, #48]
  62:UART_XG.c     ****     ok=false;
 218              		.loc 1 62 0
 219 000a 3623     		movs	r3, #54
 220 000c FB18     		adds	r3, r7, r3
 221 000e 0022     		movs	r2, #0
ARM GAS  C:\Users\Laurent\AppData\Local\Temp\ccV7mqFv.s 			page 6


 222 0010 1A70     		strb	r2, [r3]
  63:UART_XG.c     ****     indexe=0;
 223              		.loc 1 63 0
 224 0012 3723     		movs	r3, #55
 225 0014 FB18     		adds	r3, r7, r3
 226 0016 0022     		movs	r2, #0
 227 0018 1A70     		strb	r2, [r3]
  64:UART_XG.c     ****     debut=time;
 228              		.loc 1 64 0
 229 001a 384B     		ldr	r3, .L27
 230 001c 1B68     		ldr	r3, [r3]
 231 001e FB62     		str	r3, [r7, #44]
  65:UART_XG.c     **** //    txdata=rxdata;
  66:UART_XG.c     ****     while((indexe<FRAME_SIZE)&&((time-debut)<UART_TIMEOUT))
 232              		.loc 1 66 0
 233 0020 72E0     		b	.L14
 234              	.L21:
  67:UART_XG.c     ****     {
  68:UART_XG.c     ****       tmp32 = UART_UartGetByte();
 235              		.loc 1 68 0
 236 0022 FFF7FEFF 		bl	UART_UartGetByte
 237 0026 0300     		movs	r3, r0
 238 0028 3B60     		str	r3, [r7]
  69:UART_XG.c     ****       if (tmp32>255)
 239              		.loc 1 69 0
 240 002a 3B68     		ldr	r3, [r7]
 241 002c 3722     		movs	r2, #55
 242 002e BA18     		adds	r2, r7, r2
 243 0030 3721     		movs	r1, #55
 244 0032 7918     		adds	r1, r7, r1
 245 0034 0978     		ldrb	r1, [r1]
 246 0036 1170     		strb	r1, [r2]
 247 0038 FF2B     		cmp	r3, #255
 248 003a 00D9     		bls	.LCB201
 249 003c 64E0     		b	.L14	@long jump
 250              	.LCB201:
  70:UART_XG.c     ****       {
  71:UART_XG.c     ****       //   UART_UartPutString("Buffer eror ok\r\n");
  72:UART_XG.c     ****        // indexe=0;
  73:UART_XG.c     ****       }    
  74:UART_XG.c     ****       else 
  75:UART_XG.c     ****       {
  76:UART_XG.c     ****         if ((*tmp8=='P') && (indexe==0))
 251              		.loc 1 76 0
 252 003e 3B6B     		ldr	r3, [r7, #48]
 253 0040 1B78     		ldrb	r3, [r3]
 254 0042 502B     		cmp	r3, #80
 255 0044 0CD1     		bne	.L15
 256              		.loc 1 76 0 is_stmt 0 discriminator 1
 257 0046 3723     		movs	r3, #55
 258 0048 FB18     		adds	r3, r7, r3
 259 004a 1B78     		ldrb	r3, [r3]
 260 004c 002B     		cmp	r3, #0
 261 004e 07D1     		bne	.L15
  77:UART_XG.c     ****         {
  78:UART_XG.c     ****             indexe++;
 262              		.loc 1 78 0 is_stmt 1
ARM GAS  C:\Users\Laurent\AppData\Local\Temp\ccV7mqFv.s 			page 7


 263 0050 3723     		movs	r3, #55
 264 0052 FB18     		adds	r3, r7, r3
 265 0054 1A78     		ldrb	r2, [r3]
 266 0056 3723     		movs	r3, #55
 267 0058 FB18     		adds	r3, r7, r3
 268 005a 0132     		adds	r2, r2, #1
 269 005c 1A70     		strb	r2, [r3]
 270 005e 53E0     		b	.L14
 271              	.L15:
  79:UART_XG.c     ****         }
  80:UART_XG.c     ****         else if ((*tmp8=='A') && (indexe==1))
 272              		.loc 1 80 0
 273 0060 3B6B     		ldr	r3, [r7, #48]
 274 0062 1B78     		ldrb	r3, [r3]
 275 0064 412B     		cmp	r3, #65
 276 0066 0CD1     		bne	.L16
 277              		.loc 1 80 0 is_stmt 0 discriminator 1
 278 0068 3723     		movs	r3, #55
 279 006a FB18     		adds	r3, r7, r3
 280 006c 1B78     		ldrb	r3, [r3]
 281 006e 012B     		cmp	r3, #1
 282 0070 07D1     		bne	.L16
  81:UART_XG.c     ****         {
  82:UART_XG.c     ****             indexe++;
 283              		.loc 1 82 0 is_stmt 1
 284 0072 3723     		movs	r3, #55
 285 0074 FB18     		adds	r3, r7, r3
 286 0076 1A78     		ldrb	r2, [r3]
 287 0078 3723     		movs	r3, #55
 288 007a FB18     		adds	r3, r7, r3
 289 007c 0132     		adds	r2, r2, #1
 290 007e 1A70     		strb	r2, [r3]
 291 0080 42E0     		b	.L14
 292              	.L16:
  83:UART_XG.c     ****         }
  84:UART_XG.c     ****         else if ((*tmp8=='R') && (indexe==2))
 293              		.loc 1 84 0
 294 0082 3B6B     		ldr	r3, [r7, #48]
 295 0084 1B78     		ldrb	r3, [r3]
 296 0086 522B     		cmp	r3, #82
 297 0088 0CD1     		bne	.L17
 298              		.loc 1 84 0 is_stmt 0 discriminator 1
 299 008a 3723     		movs	r3, #55
 300 008c FB18     		adds	r3, r7, r3
 301 008e 1B78     		ldrb	r3, [r3]
 302 0090 022B     		cmp	r3, #2
 303 0092 07D1     		bne	.L17
  85:UART_XG.c     ****         {
  86:UART_XG.c     ****             indexe++;
 304              		.loc 1 86 0 is_stmt 1
 305 0094 3723     		movs	r3, #55
 306 0096 FB18     		adds	r3, r7, r3
 307 0098 1A78     		ldrb	r2, [r3]
 308 009a 3723     		movs	r3, #55
 309 009c FB18     		adds	r3, r7, r3
 310 009e 0132     		adds	r2, r2, #1
 311 00a0 1A70     		strb	r2, [r3]
ARM GAS  C:\Users\Laurent\AppData\Local\Temp\ccV7mqFv.s 			page 8


 312 00a2 31E0     		b	.L14
 313              	.L17:
  87:UART_XG.c     ****         }
  88:UART_XG.c     ****         else if ((*tmp8=='.') && (indexe==3))
 314              		.loc 1 88 0
 315 00a4 3B6B     		ldr	r3, [r7, #48]
 316 00a6 1B78     		ldrb	r3, [r3]
 317 00a8 2E2B     		cmp	r3, #46
 318 00aa 0CD1     		bne	.L18
 319              		.loc 1 88 0 is_stmt 0 discriminator 1
 320 00ac 3723     		movs	r3, #55
 321 00ae FB18     		adds	r3, r7, r3
 322 00b0 1B78     		ldrb	r3, [r3]
 323 00b2 032B     		cmp	r3, #3
 324 00b4 07D1     		bne	.L18
  89:UART_XG.c     ****         {
  90:UART_XG.c     ****             indexe++;
 325              		.loc 1 90 0 is_stmt 1
 326 00b6 3723     		movs	r3, #55
 327 00b8 FB18     		adds	r3, r7, r3
 328 00ba 1A78     		ldrb	r2, [r3]
 329 00bc 3723     		movs	r3, #55
 330 00be FB18     		adds	r3, r7, r3
 331 00c0 0132     		adds	r2, r2, #1
 332 00c2 1A70     		strb	r2, [r3]
 333 00c4 20E0     		b	.L14
 334              	.L18:
  91:UART_XG.c     ****         }
  92:UART_XG.c     ****         else if((indexe>3)&&(indexe<FRAME_SIZE)) // ??? 
 335              		.loc 1 92 0
 336 00c6 3723     		movs	r3, #55
 337 00c8 FB18     		adds	r3, r7, r3
 338 00ca 1B78     		ldrb	r3, [r3]
 339 00cc 032B     		cmp	r3, #3
 340 00ce 17D9     		bls	.L19
 341              		.loc 1 92 0 is_stmt 0 discriminator 1
 342 00d0 3723     		movs	r3, #55
 343 00d2 FB18     		adds	r3, r7, r3
 344 00d4 1B78     		ldrb	r3, [r3]
 345 00d6 292B     		cmp	r3, #41
 346 00d8 12D8     		bhi	.L19
  93:UART_XG.c     ****         {
  94:UART_XG.c     ****             rxdata[indexe-4]=*tmp8; 
 347              		.loc 1 94 0 is_stmt 1
 348 00da 3723     		movs	r3, #55
 349 00dc FB18     		adds	r3, r7, r3
 350 00de 1B78     		ldrb	r3, [r3]
 351 00e0 043B     		subs	r3, r3, #4
 352 00e2 3A6B     		ldr	r2, [r7, #48]
 353 00e4 1178     		ldrb	r1, [r2]
 354 00e6 3A1D     		adds	r2, r7, #4
 355 00e8 D154     		strb	r1, [r2, r3]
  95:UART_XG.c     ****             indexe++;
 356              		.loc 1 95 0
 357 00ea 3723     		movs	r3, #55
 358 00ec FB18     		adds	r3, r7, r3
 359 00ee 1A78     		ldrb	r2, [r3]
ARM GAS  C:\Users\Laurent\AppData\Local\Temp\ccV7mqFv.s 			page 9


 360 00f0 3723     		movs	r3, #55
 361 00f2 FB18     		adds	r3, r7, r3
 362 00f4 0132     		adds	r2, r2, #1
 363 00f6 1A70     		strb	r2, [r3]
 364 00f8 06E0     		b	.L14
 365              	.L28:
 366 00fa C046     		.align	2
 367              	.L27:
 368 00fc 00000000 		.word	time
 369              	.L19:
  96:UART_XG.c     ****         }
  97:UART_XG.c     ****         else
  98:UART_XG.c     ****         {
  99:UART_XG.c     ****             indexe=0;
 370              		.loc 1 99 0
 371 0100 3723     		movs	r3, #55
 372 0102 FB18     		adds	r3, r7, r3
 373 0104 0022     		movs	r2, #0
 374 0106 1A70     		strb	r2, [r3]
 375              	.L14:
  66:UART_XG.c     ****     {
 376              		.loc 1 66 0
 377 0108 3723     		movs	r3, #55
 378 010a FB18     		adds	r3, r7, r3
 379 010c 1B78     		ldrb	r3, [r3]
 380 010e 292B     		cmp	r3, #41
 381 0110 07D8     		bhi	.L20
  66:UART_XG.c     ****     {
 382              		.loc 1 66 0 is_stmt 0 discriminator 1
 383 0112 C44B     		ldr	r3, .L29
 384 0114 1A68     		ldr	r2, [r3]
 385 0116 FB6A     		ldr	r3, [r7, #44]
 386 0118 D31A     		subs	r3, r2, r3
 387 011a C34A     		ldr	r2, .L29+4
 388 011c 9342     		cmp	r3, r2
 389 011e 00D8     		bhi	.LCB334
 390 0120 7FE7     		b	.L21	@long jump
 391              	.LCB334:
 392              	.L20:
 100:UART_XG.c     ****         }  
 101:UART_XG.c     ****        } 
 102:UART_XG.c     ****     }
 103:UART_XG.c     ****     param.Tech=(rxdata[0]<<8)+rxdata[1];
 393              		.loc 1 103 0 is_stmt 1
 394 0122 3B1D     		adds	r3, r7, #4
 395 0124 1B78     		ldrb	r3, [r3]
 396 0126 9BB2     		uxth	r3, r3
 397 0128 1B02     		lsls	r3, r3, #8
 398 012a 9AB2     		uxth	r2, r3
 399 012c 3B1D     		adds	r3, r7, #4
 400 012e 5B78     		ldrb	r3, [r3, #1]
 401 0130 9BB2     		uxth	r3, r3
 402 0132 D318     		adds	r3, r2, r3
 403 0134 9AB2     		uxth	r2, r3
 404 0136 BD4B     		ldr	r3, .L29+8
 405 0138 1A80     		strh	r2, [r3]
 104:UART_XG.c     ****     param.nb_boucles=rxdata[2];
ARM GAS  C:\Users\Laurent\AppData\Local\Temp\ccV7mqFv.s 			page 10


 406              		.loc 1 104 0
 407 013a 3B1D     		adds	r3, r7, #4
 408 013c 9A78     		ldrb	r2, [r3, #2]
 409 013e BB4B     		ldr	r3, .L29+8
 410 0140 9A70     		strb	r2, [r3, #2]
 105:UART_XG.c     ****     param.Kp1_num=(rxdata[3]<<8)+rxdata[4];
 411              		.loc 1 105 0
 412 0142 3B1D     		adds	r3, r7, #4
 413 0144 DB78     		ldrb	r3, [r3, #3]
 414 0146 9BB2     		uxth	r3, r3
 415 0148 1B02     		lsls	r3, r3, #8
 416 014a 9AB2     		uxth	r2, r3
 417 014c 3B1D     		adds	r3, r7, #4
 418 014e 1B79     		ldrb	r3, [r3, #4]
 419 0150 9BB2     		uxth	r3, r3
 420 0152 D318     		adds	r3, r2, r3
 421 0154 9AB2     		uxth	r2, r3
 422 0156 B54B     		ldr	r3, .L29+8
 423 0158 9A80     		strh	r2, [r3, #4]
 106:UART_XG.c     ****     param.Kp1_den=(rxdata[5]<<8)+rxdata[6];
 424              		.loc 1 106 0
 425 015a 3B1D     		adds	r3, r7, #4
 426 015c 5B79     		ldrb	r3, [r3, #5]
 427 015e 9BB2     		uxth	r3, r3
 428 0160 1B02     		lsls	r3, r3, #8
 429 0162 9AB2     		uxth	r2, r3
 430 0164 3B1D     		adds	r3, r7, #4
 431 0166 9B79     		ldrb	r3, [r3, #6]
 432 0168 9BB2     		uxth	r3, r3
 433 016a D318     		adds	r3, r2, r3
 434 016c 9AB2     		uxth	r2, r3
 435 016e AF4B     		ldr	r3, .L29+8
 436 0170 DA80     		strh	r2, [r3, #6]
 107:UART_XG.c     ****     param.Kp2_num=(rxdata[7]<<8)+rxdata[8];
 437              		.loc 1 107 0
 438 0172 3B1D     		adds	r3, r7, #4
 439 0174 DB79     		ldrb	r3, [r3, #7]
 440 0176 9BB2     		uxth	r3, r3
 441 0178 1B02     		lsls	r3, r3, #8
 442 017a 9AB2     		uxth	r2, r3
 443 017c 3B1D     		adds	r3, r7, #4
 444 017e 1B7A     		ldrb	r3, [r3, #8]
 445 0180 9BB2     		uxth	r3, r3
 446 0182 D318     		adds	r3, r2, r3
 447 0184 9AB2     		uxth	r2, r3
 448 0186 A94B     		ldr	r3, .L29+8
 449 0188 1A81     		strh	r2, [r3, #8]
 108:UART_XG.c     ****     param.Kp2_den=(rxdata[9]<<8)+rxdata[10];
 450              		.loc 1 108 0
 451 018a 3B1D     		adds	r3, r7, #4
 452 018c 5B7A     		ldrb	r3, [r3, #9]
 453 018e 9BB2     		uxth	r3, r3
 454 0190 1B02     		lsls	r3, r3, #8
 455 0192 9AB2     		uxth	r2, r3
 456 0194 3B1D     		adds	r3, r7, #4
 457 0196 9B7A     		ldrb	r3, [r3, #10]
 458 0198 9BB2     		uxth	r3, r3
ARM GAS  C:\Users\Laurent\AppData\Local\Temp\ccV7mqFv.s 			page 11


 459 019a D318     		adds	r3, r2, r3
 460 019c 9AB2     		uxth	r2, r3
 461 019e A34B     		ldr	r3, .L29+8
 462 01a0 5A81     		strh	r2, [r3, #10]
 109:UART_XG.c     ****     param.Kd1_num=(rxdata[11]<<8)+rxdata[12];
 463              		.loc 1 109 0
 464 01a2 3B1D     		adds	r3, r7, #4
 465 01a4 DB7A     		ldrb	r3, [r3, #11]
 466 01a6 9BB2     		uxth	r3, r3
 467 01a8 1B02     		lsls	r3, r3, #8
 468 01aa 9AB2     		uxth	r2, r3
 469 01ac 3B1D     		adds	r3, r7, #4
 470 01ae 1B7B     		ldrb	r3, [r3, #12]
 471 01b0 9BB2     		uxth	r3, r3
 472 01b2 D318     		adds	r3, r2, r3
 473 01b4 9AB2     		uxth	r2, r3
 474 01b6 9D4B     		ldr	r3, .L29+8
 475 01b8 9A81     		strh	r2, [r3, #12]
 110:UART_XG.c     ****     param.Kd1_den=(rxdata[13]<<8)+rxdata[14];
 476              		.loc 1 110 0
 477 01ba 3B1D     		adds	r3, r7, #4
 478 01bc 5B7B     		ldrb	r3, [r3, #13]
 479 01be 9BB2     		uxth	r3, r3
 480 01c0 1B02     		lsls	r3, r3, #8
 481 01c2 9AB2     		uxth	r2, r3
 482 01c4 3B1D     		adds	r3, r7, #4
 483 01c6 9B7B     		ldrb	r3, [r3, #14]
 484 01c8 9BB2     		uxth	r3, r3
 485 01ca D318     		adds	r3, r2, r3
 486 01cc 9AB2     		uxth	r2, r3
 487 01ce 974B     		ldr	r3, .L29+8
 488 01d0 DA81     		strh	r2, [r3, #14]
 111:UART_XG.c     ****     param.Kd2_num=(rxdata[15]<<8)+rxdata[16];
 489              		.loc 1 111 0
 490 01d2 3B1D     		adds	r3, r7, #4
 491 01d4 DB7B     		ldrb	r3, [r3, #15]
 492 01d6 9BB2     		uxth	r3, r3
 493 01d8 1B02     		lsls	r3, r3, #8
 494 01da 9AB2     		uxth	r2, r3
 495 01dc 3B1D     		adds	r3, r7, #4
 496 01de 1B7C     		ldrb	r3, [r3, #16]
 497 01e0 9BB2     		uxth	r3, r3
 498 01e2 D318     		adds	r3, r2, r3
 499 01e4 9AB2     		uxth	r2, r3
 500 01e6 914B     		ldr	r3, .L29+8
 501 01e8 1A82     		strh	r2, [r3, #16]
 112:UART_XG.c     ****     param.Kd2_den=(rxdata[17]<<8)+rxdata[18];
 502              		.loc 1 112 0
 503 01ea 3B1D     		adds	r3, r7, #4
 504 01ec 5B7C     		ldrb	r3, [r3, #17]
 505 01ee 9BB2     		uxth	r3, r3
 506 01f0 1B02     		lsls	r3, r3, #8
 507 01f2 9AB2     		uxth	r2, r3
 508 01f4 3B1D     		adds	r3, r7, #4
 509 01f6 9B7C     		ldrb	r3, [r3, #18]
 510 01f8 9BB2     		uxth	r3, r3
 511 01fa D318     		adds	r3, r2, r3
ARM GAS  C:\Users\Laurent\AppData\Local\Temp\ccV7mqFv.s 			page 12


 512 01fc 9AB2     		uxth	r2, r3
 513 01fe 8B4B     		ldr	r3, .L29+8
 514 0200 5A82     		strh	r2, [r3, #18]
 113:UART_XG.c     ****     param.Ki1_num=(rxdata[19]<<8)+rxdata[20];
 515              		.loc 1 113 0
 516 0202 3B1D     		adds	r3, r7, #4
 517 0204 DB7C     		ldrb	r3, [r3, #19]
 518 0206 9BB2     		uxth	r3, r3
 519 0208 1B02     		lsls	r3, r3, #8
 520 020a 9AB2     		uxth	r2, r3
 521 020c 3B1D     		adds	r3, r7, #4
 522 020e 1B7D     		ldrb	r3, [r3, #20]
 523 0210 9BB2     		uxth	r3, r3
 524 0212 D318     		adds	r3, r2, r3
 525 0214 9AB2     		uxth	r2, r3
 526 0216 854B     		ldr	r3, .L29+8
 527 0218 9A82     		strh	r2, [r3, #20]
 114:UART_XG.c     ****     param.Ki1_den=(rxdata[21]<<8)+rxdata[22];
 528              		.loc 1 114 0
 529 021a 3B1D     		adds	r3, r7, #4
 530 021c 5B7D     		ldrb	r3, [r3, #21]
 531 021e 9BB2     		uxth	r3, r3
 532 0220 1B02     		lsls	r3, r3, #8
 533 0222 9AB2     		uxth	r2, r3
 534 0224 3B1D     		adds	r3, r7, #4
 535 0226 9B7D     		ldrb	r3, [r3, #22]
 536 0228 9BB2     		uxth	r3, r3
 537 022a D318     		adds	r3, r2, r3
 538 022c 9AB2     		uxth	r2, r3
 539 022e 7F4B     		ldr	r3, .L29+8
 540 0230 DA82     		strh	r2, [r3, #22]
 115:UART_XG.c     ****     param.Ki2_num=(rxdata[23]<<8)+rxdata[24];
 541              		.loc 1 115 0
 542 0232 3B1D     		adds	r3, r7, #4
 543 0234 DB7D     		ldrb	r3, [r3, #23]
 544 0236 9BB2     		uxth	r3, r3
 545 0238 1B02     		lsls	r3, r3, #8
 546 023a 9AB2     		uxth	r2, r3
 547 023c 3B1D     		adds	r3, r7, #4
 548 023e 1B7E     		ldrb	r3, [r3, #24]
 549 0240 9BB2     		uxth	r3, r3
 550 0242 D318     		adds	r3, r2, r3
 551 0244 9AB2     		uxth	r2, r3
 552 0246 794B     		ldr	r3, .L29+8
 553 0248 1A83     		strh	r2, [r3, #24]
 116:UART_XG.c     ****     param.Ki2_den=(rxdata[25]<<8)+rxdata[26];
 554              		.loc 1 116 0
 555 024a 3B1D     		adds	r3, r7, #4
 556 024c 5B7E     		ldrb	r3, [r3, #25]
 557 024e 9BB2     		uxth	r3, r3
 558 0250 1B02     		lsls	r3, r3, #8
 559 0252 9AB2     		uxth	r2, r3
 560 0254 3B1D     		adds	r3, r7, #4
 561 0256 9B7E     		ldrb	r3, [r3, #26]
 562 0258 9BB2     		uxth	r3, r3
 563 025a D318     		adds	r3, r2, r3
 564 025c 9AB2     		uxth	r2, r3
ARM GAS  C:\Users\Laurent\AppData\Local\Temp\ccV7mqFv.s 			page 13


 565 025e 734B     		ldr	r3, .L29+8
 566 0260 5A83     		strh	r2, [r3, #26]
 117:UART_XG.c     ****     param.type_consigne=rxdata[27];
 567              		.loc 1 117 0
 568 0262 3B1D     		adds	r3, r7, #4
 569 0264 DA7E     		ldrb	r2, [r3, #27]
 570 0266 714B     		ldr	r3, .L29+8
 571 0268 1A77     		strb	r2, [r3, #28]
 118:UART_XG.c     ****     param.cons_initiale=(rxdata[28]<<8)+rxdata[29];
 572              		.loc 1 118 0
 573 026a 3B1D     		adds	r3, r7, #4
 574 026c 1B7F     		ldrb	r3, [r3, #28]
 575 026e 9BB2     		uxth	r3, r3
 576 0270 1B02     		lsls	r3, r3, #8
 577 0272 9AB2     		uxth	r2, r3
 578 0274 3B1D     		adds	r3, r7, #4
 579 0276 5B7F     		ldrb	r3, [r3, #29]
 580 0278 9BB2     		uxth	r3, r3
 581 027a D318     		adds	r3, r2, r3
 582 027c 9BB2     		uxth	r3, r3
 583 027e 1AB2     		sxth	r2, r3
 584 0280 6A4B     		ldr	r3, .L29+8
 585 0282 DA83     		strh	r2, [r3, #30]
 119:UART_XG.c     ****     param.cons_finale=(rxdata[30]<<8)+rxdata[31];
 586              		.loc 1 119 0
 587 0284 3B1D     		adds	r3, r7, #4
 588 0286 9B7F     		ldrb	r3, [r3, #30]
 589 0288 9BB2     		uxth	r3, r3
 590 028a 1B02     		lsls	r3, r3, #8
 591 028c 9AB2     		uxth	r2, r3
 592 028e 3B1D     		adds	r3, r7, #4
 593 0290 DB7F     		ldrb	r3, [r3, #31]
 594 0292 9BB2     		uxth	r3, r3
 595 0294 D318     		adds	r3, r2, r3
 596 0296 9BB2     		uxth	r3, r3
 597 0298 1AB2     		sxth	r2, r3
 598 029a 644B     		ldr	r3, .L29+8
 599 029c 1A84     		strh	r2, [r3, #32]
 120:UART_XG.c     ****     param.cons_per_num=(rxdata[32]<<8)+rxdata[33];
 600              		.loc 1 120 0
 601 029e 3B1D     		adds	r3, r7, #4
 602 02a0 2022     		movs	r2, #32
 603 02a2 9B5C     		ldrb	r3, [r3, r2]
 604 02a4 9BB2     		uxth	r3, r3
 605 02a6 1B02     		lsls	r3, r3, #8
 606 02a8 9AB2     		uxth	r2, r3
 607 02aa 3B1D     		adds	r3, r7, #4
 608 02ac 2121     		movs	r1, #33
 609 02ae 5B5C     		ldrb	r3, [r3, r1]
 610 02b0 9BB2     		uxth	r3, r3
 611 02b2 D318     		adds	r3, r2, r3
 612 02b4 9AB2     		uxth	r2, r3
 613 02b6 5D4B     		ldr	r3, .L29+8
 614 02b8 5A84     		strh	r2, [r3, #34]
 121:UART_XG.c     ****     param.cons_per_den=(rxdata[34]<<8)+rxdata[35];
 615              		.loc 1 121 0
 616 02ba 3B1D     		adds	r3, r7, #4
ARM GAS  C:\Users\Laurent\AppData\Local\Temp\ccV7mqFv.s 			page 14


 617 02bc 2222     		movs	r2, #34
 618 02be 9B5C     		ldrb	r3, [r3, r2]
 619 02c0 9BB2     		uxth	r3, r3
 620 02c2 1B02     		lsls	r3, r3, #8
 621 02c4 9AB2     		uxth	r2, r3
 622 02c6 3B1D     		adds	r3, r7, #4
 623 02c8 2321     		movs	r1, #35
 624 02ca 5B5C     		ldrb	r3, [r3, r1]
 625 02cc 9BB2     		uxth	r3, r3
 626 02ce D318     		adds	r3, r2, r3
 627 02d0 9AB2     		uxth	r2, r3
 628 02d2 564B     		ldr	r3, .L29+8
 629 02d4 9A84     		strh	r2, [r3, #36]
 122:UART_XG.c     ****     param.CRC=(rxdata[36]<<8)+(rxdata[37]);
 630              		.loc 1 122 0
 631 02d6 3B1D     		adds	r3, r7, #4
 632 02d8 2422     		movs	r2, #36
 633 02da 9B5C     		ldrb	r3, [r3, r2]
 634 02dc 9BB2     		uxth	r3, r3
 635 02de 1B02     		lsls	r3, r3, #8
 636 02e0 9AB2     		uxth	r2, r3
 637 02e2 3B1D     		adds	r3, r7, #4
 638 02e4 2521     		movs	r1, #37
 639 02e6 5B5C     		ldrb	r3, [r3, r1]
 640 02e8 9BB2     		uxth	r3, r3
 641 02ea D318     		adds	r3, r2, r3
 642 02ec 9AB2     		uxth	r2, r3
 643 02ee 4F4B     		ldr	r3, .L29+8
 644 02f0 DA84     		strh	r2, [r3, #38]
 123:UART_XG.c     ****     CRCcalc= param.Tech^param.Kp1_num^param.Kp1_den^param.Kp2_num^param.Kp2_den^ \
 645              		.loc 1 123 0
 646 02f2 4E4B     		ldr	r3, .L29+8
 647 02f4 1B88     		ldrh	r3, [r3]
 648 02f6 9AB2     		uxth	r2, r3
 649 02f8 4C4B     		ldr	r3, .L29+8
 650 02fa 9B88     		ldrh	r3, [r3, #4]
 651 02fc 9BB2     		uxth	r3, r3
 652 02fe 5340     		eors	r3, r2
 653 0300 9AB2     		uxth	r2, r3
 654 0302 4A4B     		ldr	r3, .L29+8
 655 0304 DB88     		ldrh	r3, [r3, #6]
 656 0306 9BB2     		uxth	r3, r3
 657 0308 5340     		eors	r3, r2
 658 030a 9AB2     		uxth	r2, r3
 659 030c 474B     		ldr	r3, .L29+8
 660 030e 1B89     		ldrh	r3, [r3, #8]
 661 0310 9BB2     		uxth	r3, r3
 662 0312 5340     		eors	r3, r2
 663 0314 9AB2     		uxth	r2, r3
 664 0316 454B     		ldr	r3, .L29+8
 665 0318 5B89     		ldrh	r3, [r3, #10]
 666 031a 9BB2     		uxth	r3, r3
 667 031c 5340     		eors	r3, r2
 668 031e 9AB2     		uxth	r2, r3
 124:UART_XG.c     ****             param.Ki1_num^param.Ki1_den^param.Ki2_num^param.Ki2_den^param.Kd1_num^param.Kd1_den^ \
 669              		.loc 1 124 0
 670 0320 424B     		ldr	r3, .L29+8
ARM GAS  C:\Users\Laurent\AppData\Local\Temp\ccV7mqFv.s 			page 15


 671 0322 9B8A     		ldrh	r3, [r3, #20]
 672 0324 9BB2     		uxth	r3, r3
 123:UART_XG.c     ****     CRCcalc= param.Tech^param.Kp1_num^param.Kp1_den^param.Kp2_num^param.Kp2_den^ \
 673              		.loc 1 123 0
 674 0326 5340     		eors	r3, r2
 675 0328 9AB2     		uxth	r2, r3
 676              		.loc 1 124 0
 677 032a 404B     		ldr	r3, .L29+8
 678 032c DB8A     		ldrh	r3, [r3, #22]
 679 032e 9BB2     		uxth	r3, r3
 123:UART_XG.c     ****     CRCcalc= param.Tech^param.Kp1_num^param.Kp1_den^param.Kp2_num^param.Kp2_den^ \
 680              		.loc 1 123 0
 681 0330 5340     		eors	r3, r2
 682 0332 9AB2     		uxth	r2, r3
 683              		.loc 1 124 0
 684 0334 3D4B     		ldr	r3, .L29+8
 685 0336 1B8B     		ldrh	r3, [r3, #24]
 686 0338 9BB2     		uxth	r3, r3
 123:UART_XG.c     ****     CRCcalc= param.Tech^param.Kp1_num^param.Kp1_den^param.Kp2_num^param.Kp2_den^ \
 687              		.loc 1 123 0
 688 033a 5340     		eors	r3, r2
 689 033c 9AB2     		uxth	r2, r3
 690              		.loc 1 124 0
 691 033e 3B4B     		ldr	r3, .L29+8
 692 0340 5B8B     		ldrh	r3, [r3, #26]
 693 0342 9BB2     		uxth	r3, r3
 123:UART_XG.c     ****     CRCcalc= param.Tech^param.Kp1_num^param.Kp1_den^param.Kp2_num^param.Kp2_den^ \
 694              		.loc 1 123 0
 695 0344 5340     		eors	r3, r2
 696 0346 9AB2     		uxth	r2, r3
 697              		.loc 1 124 0
 698 0348 384B     		ldr	r3, .L29+8
 699 034a 9B89     		ldrh	r3, [r3, #12]
 700 034c 9BB2     		uxth	r3, r3
 123:UART_XG.c     ****     CRCcalc= param.Tech^param.Kp1_num^param.Kp1_den^param.Kp2_num^param.Kp2_den^ \
 701              		.loc 1 123 0
 702 034e 5340     		eors	r3, r2
 703 0350 9AB2     		uxth	r2, r3
 704              		.loc 1 124 0
 705 0352 364B     		ldr	r3, .L29+8
 706 0354 DB89     		ldrh	r3, [r3, #14]
 707 0356 9BB2     		uxth	r3, r3
 123:UART_XG.c     ****     CRCcalc= param.Tech^param.Kp1_num^param.Kp1_den^param.Kp2_num^param.Kp2_den^ \
 708              		.loc 1 123 0
 709 0358 5340     		eors	r3, r2
 710 035a 9AB2     		uxth	r2, r3
 125:UART_XG.c     ****             param.Kd1_num^param.Kd1_den^param.Kp2_num^param.cons_initiale^   \
 711              		.loc 1 125 0
 712 035c 334B     		ldr	r3, .L29+8
 713 035e 9B89     		ldrh	r3, [r3, #12]
 714 0360 9BB2     		uxth	r3, r3
 123:UART_XG.c     ****     CRCcalc= param.Tech^param.Kp1_num^param.Kp1_den^param.Kp2_num^param.Kp2_den^ \
 715              		.loc 1 123 0
 716 0362 5340     		eors	r3, r2
 717 0364 9AB2     		uxth	r2, r3
 718              		.loc 1 125 0
 719 0366 314B     		ldr	r3, .L29+8
ARM GAS  C:\Users\Laurent\AppData\Local\Temp\ccV7mqFv.s 			page 16


 720 0368 DB89     		ldrh	r3, [r3, #14]
 721 036a 9BB2     		uxth	r3, r3
 123:UART_XG.c     ****     CRCcalc= param.Tech^param.Kp1_num^param.Kp1_den^param.Kp2_num^param.Kp2_den^ \
 722              		.loc 1 123 0
 723 036c 5340     		eors	r3, r2
 724 036e 9AB2     		uxth	r2, r3
 725              		.loc 1 125 0
 726 0370 2E4B     		ldr	r3, .L29+8
 727 0372 1B89     		ldrh	r3, [r3, #8]
 728 0374 9BB2     		uxth	r3, r3
 123:UART_XG.c     ****     CRCcalc= param.Tech^param.Kp1_num^param.Kp1_den^param.Kp2_num^param.Kp2_den^ \
 729              		.loc 1 123 0
 730 0376 5340     		eors	r3, r2
 731 0378 9BB2     		uxth	r3, r3
 732 037a 1AB2     		sxth	r2, r3
 733              		.loc 1 125 0
 734 037c 2B4B     		ldr	r3, .L29+8
 735 037e DB8B     		ldrh	r3, [r3, #30]
 736 0380 1BB2     		sxth	r3, r3
 123:UART_XG.c     ****     CRCcalc= param.Tech^param.Kp1_num^param.Kp1_den^param.Kp2_num^param.Kp2_den^ \
 737              		.loc 1 123 0
 738 0382 5340     		eors	r3, r2
 739 0384 1AB2     		sxth	r2, r3
 126:UART_XG.c     ****             param.cons_finale^param.cons_per_den^param.cons_per_num^((param.nb_boucles<<8)+param.ty
 740              		.loc 1 126 0
 741 0386 294B     		ldr	r3, .L29+8
 742 0388 1B8C     		ldrh	r3, [r3, #32]
 743 038a 1BB2     		sxth	r3, r3
 123:UART_XG.c     ****             param.Ki1_num^param.Ki1_den^param.Ki2_num^param.Ki2_den^param.Kd1_num^param.Kd1_den^ \
 744              		.loc 1 123 0
 745 038c 5340     		eors	r3, r2
 746 038e 1AB2     		sxth	r2, r3
 747              		.loc 1 126 0
 748 0390 264B     		ldr	r3, .L29+8
 749 0392 9B8C     		ldrh	r3, [r3, #36]
 750 0394 9BB2     		uxth	r3, r3
 123:UART_XG.c     ****             param.Ki1_num^param.Ki1_den^param.Ki2_num^param.Ki2_den^param.Kd1_num^param.Kd1_den^ \
 751              		.loc 1 123 0
 752 0396 1BB2     		sxth	r3, r3
 753 0398 5340     		eors	r3, r2
 754 039a 1AB2     		sxth	r2, r3
 755              		.loc 1 126 0
 756 039c 234B     		ldr	r3, .L29+8
 757 039e 5B8C     		ldrh	r3, [r3, #34]
 758 03a0 9BB2     		uxth	r3, r3
 123:UART_XG.c     ****             param.Ki1_num^param.Ki1_den^param.Ki2_num^param.Ki2_den^param.Kd1_num^param.Kd1_den^ \
 759              		.loc 1 123 0
 760 03a2 1BB2     		sxth	r3, r3
 761 03a4 5340     		eors	r3, r2
 762 03a6 1AB2     		sxth	r2, r3
 763              		.loc 1 126 0
 764 03a8 204B     		ldr	r3, .L29+8
 765 03aa 9B78     		ldrb	r3, [r3, #2]
 766 03ac DBB2     		uxtb	r3, r3
 123:UART_XG.c     ****             param.Ki1_num^param.Ki1_den^param.Ki2_num^param.Ki2_den^param.Kd1_num^param.Kd1_den^ \
 767              		.loc 1 123 0
 768 03ae 9BB2     		uxth	r3, r3
ARM GAS  C:\Users\Laurent\AppData\Local\Temp\ccV7mqFv.s 			page 17


 769 03b0 1B02     		lsls	r3, r3, #8
 770 03b2 99B2     		uxth	r1, r3
 771              		.loc 1 126 0
 772 03b4 1D4B     		ldr	r3, .L29+8
 773 03b6 1B7F     		ldrb	r3, [r3, #28]
 774 03b8 DBB2     		uxtb	r3, r3
 123:UART_XG.c     ****             param.Ki1_num^param.Ki1_den^param.Ki2_num^param.Ki2_den^param.Kd1_num^param.Kd1_den^ \
 775              		.loc 1 123 0
 776 03ba 9BB2     		uxth	r3, r3
 777 03bc CB18     		adds	r3, r1, r3
 778 03be 9BB2     		uxth	r3, r3
 779 03c0 1BB2     		sxth	r3, r3
 780 03c2 5340     		eors	r3, r2
 781 03c4 1AB2     		sxth	r2, r3
 782 03c6 2A23     		movs	r3, #42
 783 03c8 FB18     		adds	r3, r7, r3
 784 03ca 1A80     		strh	r2, [r3]
 127:UART_XG.c     ****     if(CRCcalc==param.CRC)
 785              		.loc 1 127 0
 786 03cc 174B     		ldr	r3, .L29+8
 787 03ce DB8C     		ldrh	r3, [r3, #38]
 788 03d0 9BB2     		uxth	r3, r3
 789 03d2 2A22     		movs	r2, #42
 790 03d4 BA18     		adds	r2, r7, r2
 791 03d6 1288     		ldrh	r2, [r2]
 792 03d8 9A42     		cmp	r2, r3
 793 03da 18D1     		bne	.L22
 128:UART_XG.c     ****             {
 129:UART_XG.c     ****                 ok=true;
 794              		.loc 1 129 0
 795 03dc 3623     		movs	r3, #54
 796 03de FB18     		adds	r3, r7, r3
 797 03e0 0122     		movs	r2, #1
 798 03e2 1A70     		strb	r2, [r3]
 130:UART_XG.c     ****                 if(param.nb_boucles>=128) 
 799              		.loc 1 130 0
 800 03e4 114B     		ldr	r3, .L29+8
 801 03e6 9B78     		ldrb	r3, [r3, #2]
 802 03e8 DBB2     		uxtb	r3, r3
 803 03ea 5BB2     		sxtb	r3, r3
 804 03ec 002B     		cmp	r3, #0
 805 03ee 0ADA     		bge	.L23
 131:UART_XG.c     ****                 {
 132:UART_XG.c     ****                     param.nb_boucles-=128;
 806              		.loc 1 132 0
 807 03f0 0E4B     		ldr	r3, .L29+8
 808 03f2 9B78     		ldrb	r3, [r3, #2]
 809 03f4 DBB2     		uxtb	r3, r3
 810 03f6 803B     		subs	r3, r3, #128
 811 03f8 DAB2     		uxtb	r2, r3
 812 03fa 0C4B     		ldr	r3, .L29+8
 813 03fc 9A70     		strb	r2, [r3, #2]
 133:UART_XG.c     ****                     marche_bool=true;
 814              		.loc 1 133 0
 815 03fe 0C4B     		ldr	r3, .L29+12
 816 0400 0122     		movs	r2, #1
 817 0402 1A70     		strb	r2, [r3]
ARM GAS  C:\Users\Laurent\AppData\Local\Temp\ccV7mqFv.s 			page 18


 818 0404 07E0     		b	.L25
 819              	.L23:
 134:UART_XG.c     ****                 }
 135:UART_XG.c     ****                 else 
 136:UART_XG.c     ****                 {
 137:UART_XG.c     ****                     marche_bool=false;
 820              		.loc 1 137 0
 821 0406 0A4B     		ldr	r3, .L29+12
 822 0408 0022     		movs	r2, #0
 823 040a 1A70     		strb	r2, [r3]
 824 040c 03E0     		b	.L25
 825              	.L22:
 138:UART_XG.c     ****                 }
 139:UART_XG.c     ****             }
 140:UART_XG.c     ****             else
 141:UART_XG.c     ****             {
 142:UART_XG.c     ****                 ok=false;
 826              		.loc 1 142 0
 827 040e 3623     		movs	r3, #54
 828 0410 FB18     		adds	r3, r7, r3
 829 0412 0022     		movs	r2, #0
 830 0414 1A70     		strb	r2, [r3]
 831              	.L25:
 143:UART_XG.c     ****             }
 144:UART_XG.c     ****     return ok;
 832              		.loc 1 144 0
 833 0416 3623     		movs	r3, #54
 834 0418 FB18     		adds	r3, r7, r3
 835 041a 1B78     		ldrb	r3, [r3]
 145:UART_XG.c     **** }
 836              		.loc 1 145 0
 837 041c 1800     		movs	r0, r3
 838 041e BD46     		mov	sp, r7
 839 0420 0EB0     		add	sp, sp, #56
 840              		@ sp needed
 841 0422 80BD     		pop	{r7, pc}
 842              	.L30:
 843              		.align	2
 844              	.L29:
 845 0424 00000000 		.word	time
 846 0428 E7030000 		.word	999
 847 042c 00000000 		.word	param
 848 0430 00000000 		.word	marche_bool
 849              		.cfi_endproc
 850              	.LFE33:
 851              		.size	Get_trame, .-Get_trame
 852              		.text
 853              	.Letext0:
 854              		.file 2 "Generated_Source\\PSoC4/cytypes.h"
 855              		.file 3 "proj_types.h"
 856              		.file 4 "UART_XG.h"
 857              		.section	.debug_info,"",%progbits
 858              	.Ldebug_info0:
 859 0000 1B030000 		.4byte	0x31b
 860 0004 0400     		.2byte	0x4
 861 0006 00000000 		.4byte	.Ldebug_abbrev0
 862 000a 04       		.byte	0x4
ARM GAS  C:\Users\Laurent\AppData\Local\Temp\ccV7mqFv.s 			page 19


 863 000b 01       		.uleb128 0x1
 864 000c AC000000 		.4byte	.LASF53
 865 0010 0C       		.byte	0xc
 866 0011 F0010000 		.4byte	.LASF54
 867 0015 4D020000 		.4byte	.LASF55
 868 0019 00000000 		.4byte	.Ldebug_ranges0+0
 869 001d 00000000 		.4byte	0
 870 0021 00000000 		.4byte	.Ldebug_line0
 871 0025 02       		.uleb128 0x2
 872 0026 01       		.byte	0x1
 873 0027 06       		.byte	0x6
 874 0028 AC020000 		.4byte	.LASF0
 875 002c 02       		.uleb128 0x2
 876 002d 01       		.byte	0x1
 877 002e 08       		.byte	0x8
 878 002f 69000000 		.4byte	.LASF1
 879 0033 02       		.uleb128 0x2
 880 0034 02       		.byte	0x2
 881 0035 05       		.byte	0x5
 882 0036 0C020000 		.4byte	.LASF2
 883 003a 02       		.uleb128 0x2
 884 003b 02       		.byte	0x2
 885 003c 07       		.byte	0x7
 886 003d C0020000 		.4byte	.LASF3
 887 0041 02       		.uleb128 0x2
 888 0042 04       		.byte	0x4
 889 0043 05       		.byte	0x5
 890 0044 44020000 		.4byte	.LASF4
 891 0048 02       		.uleb128 0x2
 892 0049 04       		.byte	0x4
 893 004a 07       		.byte	0x7
 894 004b 41010000 		.4byte	.LASF5
 895 004f 02       		.uleb128 0x2
 896 0050 08       		.byte	0x8
 897 0051 05       		.byte	0x5
 898 0052 E2010000 		.4byte	.LASF6
 899 0056 02       		.uleb128 0x2
 900 0057 08       		.byte	0x8
 901 0058 07       		.byte	0x7
 902 0059 91010000 		.4byte	.LASF7
 903 005d 03       		.uleb128 0x3
 904 005e 04       		.byte	0x4
 905 005f 05       		.byte	0x5
 906 0060 696E7400 		.ascii	"int\000"
 907 0064 02       		.uleb128 0x2
 908 0065 04       		.byte	0x4
 909 0066 07       		.byte	0x7
 910 0067 84010000 		.4byte	.LASF8
 911 006b 04       		.uleb128 0x4
 912 006c 63000000 		.4byte	.LASF9
 913 0070 02       		.byte	0x2
 914 0071 E601     		.2byte	0x1e6
 915 0073 2C000000 		.4byte	0x2c
 916 0077 04       		.uleb128 0x4
 917 0078 62010000 		.4byte	.LASF10
 918 007c 02       		.byte	0x2
 919 007d E701     		.2byte	0x1e7
ARM GAS  C:\Users\Laurent\AppData\Local\Temp\ccV7mqFv.s 			page 20


 920 007f 3A000000 		.4byte	0x3a
 921 0083 04       		.uleb128 0x4
 922 0084 71010000 		.4byte	.LASF11
 923 0088 02       		.byte	0x2
 924 0089 E801     		.2byte	0x1e8
 925 008b 48000000 		.4byte	0x48
 926 008f 04       		.uleb128 0x4
 927 0090 83000000 		.4byte	.LASF12
 928 0094 02       		.byte	0x2
 929 0095 EA01     		.2byte	0x1ea
 930 0097 33000000 		.4byte	0x33
 931 009b 04       		.uleb128 0x4
 932 009c 8F000000 		.4byte	.LASF13
 933 00a0 02       		.byte	0x2
 934 00a1 EB01     		.2byte	0x1eb
 935 00a3 41000000 		.4byte	0x41
 936 00a7 02       		.uleb128 0x2
 937 00a8 04       		.byte	0x4
 938 00a9 04       		.byte	0x4
 939 00aa 55000000 		.4byte	.LASF14
 940 00ae 02       		.uleb128 0x2
 941 00af 08       		.byte	0x8
 942 00b0 04       		.byte	0x4
 943 00b1 3A000000 		.4byte	.LASF15
 944 00b5 02       		.uleb128 0x2
 945 00b6 01       		.byte	0x1
 946 00b7 08       		.byte	0x8
 947 00b8 FA010000 		.4byte	.LASF16
 948 00bc 05       		.uleb128 0x5
 949 00bd 83000000 		.4byte	0x83
 950 00c1 02       		.uleb128 0x2
 951 00c2 08       		.byte	0x8
 952 00c3 04       		.byte	0x4
 953 00c4 A0020000 		.4byte	.LASF17
 954 00c8 02       		.uleb128 0x2
 955 00c9 04       		.byte	0x4
 956 00ca 07       		.byte	0x7
 957 00cb D9010000 		.4byte	.LASF18
 958 00cf 06       		.uleb128 0x6
 959 00d0 04       		.byte	0x4
 960 00d1 6B000000 		.4byte	0x6b
 961 00d5 07       		.uleb128 0x7
 962 00d6 01       		.byte	0x1
 963 00d7 2C000000 		.4byte	0x2c
 964 00db 03       		.byte	0x3
 965 00dc 11       		.byte	0x11
 966 00dd EE000000 		.4byte	0xee
 967 00e1 08       		.uleb128 0x8
 968 00e2 D3010000 		.4byte	.LASF19
 969 00e6 00       		.byte	0
 970 00e7 08       		.uleb128 0x8
 971 00e8 00000000 		.4byte	.LASF20
 972 00ec 01       		.byte	0x1
 973 00ed 00       		.byte	0
 974 00ee 09       		.uleb128 0x9
 975 00ef 28000000 		.4byte	.LASF21
 976 00f3 03       		.byte	0x3
ARM GAS  C:\Users\Laurent\AppData\Local\Temp\ccV7mqFv.s 			page 21


 977 00f4 11       		.byte	0x11
 978 00f5 D5000000 		.4byte	0xd5
 979 00f9 0A       		.uleb128 0xa
 980 00fa 28       		.byte	0x28
 981 00fb 03       		.byte	0x3
 982 00fc 27       		.byte	0x27
 983 00fd F2010000 		.4byte	0x1f2
 984 0101 0B       		.uleb128 0xb
 985 0102 35000000 		.4byte	.LASF22
 986 0106 03       		.byte	0x3
 987 0107 28       		.byte	0x28
 988 0108 77000000 		.4byte	0x77
 989 010c 00       		.byte	0
 990 010d 0B       		.uleb128 0xb
 991 010e 0D000000 		.4byte	.LASF23
 992 0112 03       		.byte	0x3
 993 0113 29       		.byte	0x29
 994 0114 B5000000 		.4byte	0xb5
 995 0118 02       		.byte	0x2
 996 0119 0B       		.uleb128 0xb
 997 011a 18000000 		.4byte	.LASF24
 998 011e 03       		.byte	0x3
 999 011f 2A       		.byte	0x2a
 1000 0120 77000000 		.4byte	0x77
 1001 0124 04       		.byte	0x4
 1002 0125 0B       		.uleb128 0xb
 1003 0126 20000000 		.4byte	.LASF25
 1004 012a 03       		.byte	0x3
 1005 012b 2B       		.byte	0x2b
 1006 012c 77000000 		.4byte	0x77
 1007 0130 06       		.byte	0x6
 1008 0131 0B       		.uleb128 0xb
 1009 0132 A4000000 		.4byte	.LASF26
 1010 0136 03       		.byte	0x3
 1011 0137 2C       		.byte	0x2c
 1012 0138 77000000 		.4byte	0x77
 1013 013c 08       		.byte	0x8
 1014 013d 0B       		.uleb128 0xb
 1015 013e 53010000 		.4byte	.LASF27
 1016 0142 03       		.byte	0x3
 1017 0143 2D       		.byte	0x2d
 1018 0144 77000000 		.4byte	0x77
 1019 0148 0A       		.byte	0xa
 1020 0149 0B       		.uleb128 0xb
 1021 014a 5B000000 		.4byte	.LASF28
 1022 014e 03       		.byte	0x3
 1023 014f 2E       		.byte	0x2e
 1024 0150 77000000 		.4byte	0x77
 1025 0154 0C       		.byte	0xc
 1026 0155 0B       		.uleb128 0xb
 1027 0156 95000000 		.4byte	.LASF29
 1028 015a 03       		.byte	0x3
 1029 015b 2F       		.byte	0x2f
 1030 015c 77000000 		.4byte	0x77
 1031 0160 0E       		.byte	0xe
 1032 0161 0B       		.uleb128 0xb
 1033 0162 69010000 		.4byte	.LASF30
ARM GAS  C:\Users\Laurent\AppData\Local\Temp\ccV7mqFv.s 			page 22


 1034 0166 03       		.byte	0x3
 1035 0167 30       		.byte	0x30
 1036 0168 77000000 		.4byte	0x77
 1037 016c 10       		.byte	0x10
 1038 016d 0B       		.uleb128 0xb
 1039 016e A8010000 		.4byte	.LASF31
 1040 0172 03       		.byte	0x3
 1041 0173 31       		.byte	0x31
 1042 0174 77000000 		.4byte	0x77
 1043 0178 12       		.byte	0x12
 1044 0179 0B       		.uleb128 0xb
 1045 017a B8020000 		.4byte	.LASF32
 1046 017e 03       		.byte	0x3
 1047 017f 32       		.byte	0x32
 1048 0180 77000000 		.4byte	0x77
 1049 0184 14       		.byte	0x14
 1050 0185 0B       		.uleb128 0xb
 1051 0186 05000000 		.4byte	.LASF33
 1052 018a 03       		.byte	0x3
 1053 018b 33       		.byte	0x33
 1054 018c 77000000 		.4byte	0x77
 1055 0190 16       		.byte	0x16
 1056 0191 0B       		.uleb128 0xb
 1057 0192 2D000000 		.4byte	.LASF34
 1058 0196 03       		.byte	0x3
 1059 0197 34       		.byte	0x34
 1060 0198 77000000 		.4byte	0x77
 1061 019c 18       		.byte	0x18
 1062 019d 0B       		.uleb128 0xb
 1063 019e 4D000000 		.4byte	.LASF35
 1064 01a2 03       		.byte	0x3
 1065 01a3 35       		.byte	0x35
 1066 01a4 77000000 		.4byte	0x77
 1067 01a8 1A       		.byte	0x1a
 1068 01a9 0B       		.uleb128 0xb
 1069 01aa 1E020000 		.4byte	.LASF36
 1070 01ae 03       		.byte	0x3
 1071 01af 36       		.byte	0x36
 1072 01b0 B5000000 		.4byte	0xb5
 1073 01b4 1C       		.byte	0x1c
 1074 01b5 0B       		.uleb128 0xb
 1075 01b6 36020000 		.4byte	.LASF37
 1076 01ba 03       		.byte	0x3
 1077 01bb 37       		.byte	0x37
 1078 01bc 8F000000 		.4byte	0x8f
 1079 01c0 1E       		.byte	0x1e
 1080 01c1 0B       		.uleb128 0xb
 1081 01c2 41000000 		.4byte	.LASF38
 1082 01c6 03       		.byte	0x3
 1083 01c7 38       		.byte	0x38
 1084 01c8 8F000000 		.4byte	0x8f
 1085 01cc 20       		.byte	0x20
 1086 01cd 0B       		.uleb128 0xb
 1087 01ce B0010000 		.4byte	.LASF39
 1088 01d2 03       		.byte	0x3
 1089 01d3 39       		.byte	0x39
 1090 01d4 77000000 		.4byte	0x77
ARM GAS  C:\Users\Laurent\AppData\Local\Temp\ccV7mqFv.s 			page 23


 1091 01d8 22       		.byte	0x22
 1092 01d9 0B       		.uleb128 0xb
 1093 01da FF010000 		.4byte	.LASF40
 1094 01de 03       		.byte	0x3
 1095 01df 3A       		.byte	0x3a
 1096 01e0 77000000 		.4byte	0x77
 1097 01e4 24       		.byte	0x24
 1098 01e5 0C       		.uleb128 0xc
 1099 01e6 43524300 		.ascii	"CRC\000"
 1100 01ea 03       		.byte	0x3
 1101 01eb 3B       		.byte	0x3b
 1102 01ec 77000000 		.4byte	0x77
 1103 01f0 26       		.byte	0x26
 1104 01f1 00       		.byte	0
 1105 01f2 09       		.uleb128 0x9
 1106 01f3 3A010000 		.4byte	.LASF41
 1107 01f7 03       		.byte	0x3
 1108 01f8 3C       		.byte	0x3c
 1109 01f9 F9000000 		.4byte	0xf9
 1110 01fd 0D       		.uleb128 0xd
 1111 01fe C2010000 		.4byte	.LASF47
 1112 0202 01       		.byte	0x1
 1113 0203 0D       		.byte	0xd
 1114 0204 9B000000 		.4byte	0x9b
 1115 0208 00000000 		.4byte	.LFB32
 1116 020c F8000000 		.4byte	.LFE32-.LFB32
 1117 0210 01       		.uleb128 0x1
 1118 0211 9C       		.byte	0x9c
 1119 0212 5D020000 		.4byte	0x25d
 1120 0216 0E       		.uleb128 0xe
 1121 0217 5B010000 		.4byte	.LASF42
 1122 021b 01       		.byte	0x1
 1123 021c 0F       		.byte	0xf
 1124 021d 6B000000 		.4byte	0x6b
 1125 0221 02       		.uleb128 0x2
 1126 0222 91       		.byte	0x91
 1127 0223 77       		.sleb128 -9
 1128 0224 0E       		.uleb128 0xe
 1129 0225 D3020000 		.4byte	.LASF43
 1130 0229 01       		.byte	0x1
 1131 022a 0F       		.byte	0xf
 1132 022b CF000000 		.4byte	0xcf
 1133 022f 02       		.uleb128 0x2
 1134 0230 91       		.byte	0x91
 1135 0231 70       		.sleb128 -16
 1136 0232 0E       		.uleb128 0xe
 1137 0233 9D000000 		.4byte	.LASF44
 1138 0237 01       		.byte	0x1
 1139 0238 10       		.byte	0x10
 1140 0239 5D020000 		.4byte	0x25d
 1141 023d 02       		.uleb128 0x2
 1142 023e 91       		.byte	0x91
 1143 023f 44       		.sleb128 -60
 1144 0240 0E       		.uleb128 0xe
 1145 0241 77000000 		.4byte	.LASF45
 1146 0245 01       		.byte	0x1
 1147 0246 11       		.byte	0x11
ARM GAS  C:\Users\Laurent\AppData\Local\Temp\ccV7mqFv.s 			page 24


 1148 0247 83000000 		.4byte	0x83
 1149 024b 02       		.uleb128 0x2
 1150 024c 91       		.byte	0x91
 1151 024d 40       		.sleb128 -64
 1152 024e 0E       		.uleb128 0xe
 1153 024f 7D000000 		.4byte	.LASF46
 1154 0253 01       		.byte	0x1
 1155 0254 11       		.byte	0x11
 1156 0255 83000000 		.4byte	0x83
 1157 0259 02       		.uleb128 0x2
 1158 025a 91       		.byte	0x91
 1159 025b 6C       		.sleb128 -20
 1160 025c 00       		.byte	0
 1161 025d 0F       		.uleb128 0xf
 1162 025e 6B000000 		.4byte	0x6b
 1163 0262 6D020000 		.4byte	0x26d
 1164 0266 10       		.uleb128 0x10
 1165 0267 C8000000 		.4byte	0xc8
 1166 026b 27       		.byte	0x27
 1167 026c 00       		.byte	0
 1168 026d 0D       		.uleb128 0xd
 1169 026e 2C020000 		.4byte	.LASF48
 1170 0272 01       		.byte	0x1
 1171 0273 36       		.byte	0x36
 1172 0274 6B000000 		.4byte	0x6b
 1173 0278 00000000 		.4byte	.LFB33
 1174 027c 34040000 		.4byte	.LFE33-.LFB33
 1175 0280 01       		.uleb128 0x1
 1176 0281 9C       		.byte	0x9c
 1177 0282 E8020000 		.4byte	0x2e8
 1178 0286 0E       		.uleb128 0xe
 1179 0287 5B010000 		.4byte	.LASF42
 1180 028b 01       		.byte	0x1
 1181 028c 39       		.byte	0x39
 1182 028d 6B000000 		.4byte	0x6b
 1183 0291 02       		.uleb128 0x2
 1184 0292 91       		.byte	0x91
 1185 0293 77       		.sleb128 -9
 1186 0294 0E       		.uleb128 0xe
 1187 0295 D3020000 		.4byte	.LASF43
 1188 0299 01       		.byte	0x1
 1189 029a 39       		.byte	0x39
 1190 029b CF000000 		.4byte	0xcf
 1191 029f 02       		.uleb128 0x2
 1192 02a0 91       		.byte	0x91
 1193 02a1 70       		.sleb128 -16
 1194 02a2 11       		.uleb128 0x11
 1195 02a3 6F6B00   		.ascii	"ok\000"
 1196 02a6 01       		.byte	0x1
 1197 02a7 39       		.byte	0x39
 1198 02a8 6B000000 		.4byte	0x6b
 1199 02ac 02       		.uleb128 0x2
 1200 02ad 91       		.byte	0x91
 1201 02ae 76       		.sleb128 -10
 1202 02af 0E       		.uleb128 0xe
 1203 02b0 9D000000 		.4byte	.LASF44
 1204 02b4 01       		.byte	0x1
ARM GAS  C:\Users\Laurent\AppData\Local\Temp\ccV7mqFv.s 			page 25


 1205 02b5 3A       		.byte	0x3a
 1206 02b6 E8020000 		.4byte	0x2e8
 1207 02ba 02       		.uleb128 0x2
 1208 02bb 91       		.byte	0x91
 1209 02bc 44       		.sleb128 -60
 1210 02bd 0E       		.uleb128 0xe
 1211 02be 16020000 		.4byte	.LASF49
 1212 02c2 01       		.byte	0x1
 1213 02c3 3B       		.byte	0x3b
 1214 02c4 77000000 		.4byte	0x77
 1215 02c8 02       		.uleb128 0x2
 1216 02c9 91       		.byte	0x91
 1217 02ca 6A       		.sleb128 -22
 1218 02cb 0E       		.uleb128 0xe
 1219 02cc 77000000 		.4byte	.LASF45
 1220 02d0 01       		.byte	0x1
 1221 02d1 3C       		.byte	0x3c
 1222 02d2 83000000 		.4byte	0x83
 1223 02d6 02       		.uleb128 0x2
 1224 02d7 91       		.byte	0x91
 1225 02d8 40       		.sleb128 -64
 1226 02d9 0E       		.uleb128 0xe
 1227 02da 7D000000 		.4byte	.LASF46
 1228 02de 01       		.byte	0x1
 1229 02df 3C       		.byte	0x3c
 1230 02e0 83000000 		.4byte	0x83
 1231 02e4 02       		.uleb128 0x2
 1232 02e5 91       		.byte	0x91
 1233 02e6 6C       		.sleb128 -20
 1234 02e7 00       		.byte	0
 1235 02e8 0F       		.uleb128 0xf
 1236 02e9 6B000000 		.4byte	0x6b
 1237 02ed F8020000 		.4byte	0x2f8
 1238 02f1 10       		.uleb128 0x10
 1239 02f2 C8000000 		.4byte	0xc8
 1240 02f6 25       		.byte	0x25
 1241 02f7 00       		.byte	0
 1242 02f8 12       		.uleb128 0x12
 1243 02f9 78010000 		.4byte	.LASF50
 1244 02fd 03       		.byte	0x3
 1245 02fe 21       		.byte	0x21
 1246 02ff EE000000 		.4byte	0xee
 1247 0303 12       		.uleb128 0x12
 1248 0304 BD010000 		.4byte	.LASF51
 1249 0308 04       		.byte	0x4
 1250 0309 17       		.byte	0x17
 1251 030a BC000000 		.4byte	0xbc
 1252 030e 12       		.uleb128 0x12
 1253 030f 89000000 		.4byte	.LASF52
 1254 0313 04       		.byte	0x4
 1255 0314 16       		.byte	0x16
 1256 0315 19030000 		.4byte	0x319
 1257 0319 05       		.uleb128 0x5
 1258 031a F2010000 		.4byte	0x1f2
 1259 031e 00       		.byte	0
 1260              		.section	.debug_abbrev,"",%progbits
 1261              	.Ldebug_abbrev0:
ARM GAS  C:\Users\Laurent\AppData\Local\Temp\ccV7mqFv.s 			page 26


 1262 0000 01       		.uleb128 0x1
 1263 0001 11       		.uleb128 0x11
 1264 0002 01       		.byte	0x1
 1265 0003 25       		.uleb128 0x25
 1266 0004 0E       		.uleb128 0xe
 1267 0005 13       		.uleb128 0x13
 1268 0006 0B       		.uleb128 0xb
 1269 0007 03       		.uleb128 0x3
 1270 0008 0E       		.uleb128 0xe
 1271 0009 1B       		.uleb128 0x1b
 1272 000a 0E       		.uleb128 0xe
 1273 000b 55       		.uleb128 0x55
 1274 000c 17       		.uleb128 0x17
 1275 000d 11       		.uleb128 0x11
 1276 000e 01       		.uleb128 0x1
 1277 000f 10       		.uleb128 0x10
 1278 0010 17       		.uleb128 0x17
 1279 0011 00       		.byte	0
 1280 0012 00       		.byte	0
 1281 0013 02       		.uleb128 0x2
 1282 0014 24       		.uleb128 0x24
 1283 0015 00       		.byte	0
 1284 0016 0B       		.uleb128 0xb
 1285 0017 0B       		.uleb128 0xb
 1286 0018 3E       		.uleb128 0x3e
 1287 0019 0B       		.uleb128 0xb
 1288 001a 03       		.uleb128 0x3
 1289 001b 0E       		.uleb128 0xe
 1290 001c 00       		.byte	0
 1291 001d 00       		.byte	0
 1292 001e 03       		.uleb128 0x3
 1293 001f 24       		.uleb128 0x24
 1294 0020 00       		.byte	0
 1295 0021 0B       		.uleb128 0xb
 1296 0022 0B       		.uleb128 0xb
 1297 0023 3E       		.uleb128 0x3e
 1298 0024 0B       		.uleb128 0xb
 1299 0025 03       		.uleb128 0x3
 1300 0026 08       		.uleb128 0x8
 1301 0027 00       		.byte	0
 1302 0028 00       		.byte	0
 1303 0029 04       		.uleb128 0x4
 1304 002a 16       		.uleb128 0x16
 1305 002b 00       		.byte	0
 1306 002c 03       		.uleb128 0x3
 1307 002d 0E       		.uleb128 0xe
 1308 002e 3A       		.uleb128 0x3a
 1309 002f 0B       		.uleb128 0xb
 1310 0030 3B       		.uleb128 0x3b
 1311 0031 05       		.uleb128 0x5
 1312 0032 49       		.uleb128 0x49
 1313 0033 13       		.uleb128 0x13
 1314 0034 00       		.byte	0
 1315 0035 00       		.byte	0
 1316 0036 05       		.uleb128 0x5
 1317 0037 35       		.uleb128 0x35
 1318 0038 00       		.byte	0
ARM GAS  C:\Users\Laurent\AppData\Local\Temp\ccV7mqFv.s 			page 27


 1319 0039 49       		.uleb128 0x49
 1320 003a 13       		.uleb128 0x13
 1321 003b 00       		.byte	0
 1322 003c 00       		.byte	0
 1323 003d 06       		.uleb128 0x6
 1324 003e 0F       		.uleb128 0xf
 1325 003f 00       		.byte	0
 1326 0040 0B       		.uleb128 0xb
 1327 0041 0B       		.uleb128 0xb
 1328 0042 49       		.uleb128 0x49
 1329 0043 13       		.uleb128 0x13
 1330 0044 00       		.byte	0
 1331 0045 00       		.byte	0
 1332 0046 07       		.uleb128 0x7
 1333 0047 04       		.uleb128 0x4
 1334 0048 01       		.byte	0x1
 1335 0049 0B       		.uleb128 0xb
 1336 004a 0B       		.uleb128 0xb
 1337 004b 49       		.uleb128 0x49
 1338 004c 13       		.uleb128 0x13
 1339 004d 3A       		.uleb128 0x3a
 1340 004e 0B       		.uleb128 0xb
 1341 004f 3B       		.uleb128 0x3b
 1342 0050 0B       		.uleb128 0xb
 1343 0051 01       		.uleb128 0x1
 1344 0052 13       		.uleb128 0x13
 1345 0053 00       		.byte	0
 1346 0054 00       		.byte	0
 1347 0055 08       		.uleb128 0x8
 1348 0056 28       		.uleb128 0x28
 1349 0057 00       		.byte	0
 1350 0058 03       		.uleb128 0x3
 1351 0059 0E       		.uleb128 0xe
 1352 005a 1C       		.uleb128 0x1c
 1353 005b 0B       		.uleb128 0xb
 1354 005c 00       		.byte	0
 1355 005d 00       		.byte	0
 1356 005e 09       		.uleb128 0x9
 1357 005f 16       		.uleb128 0x16
 1358 0060 00       		.byte	0
 1359 0061 03       		.uleb128 0x3
 1360 0062 0E       		.uleb128 0xe
 1361 0063 3A       		.uleb128 0x3a
 1362 0064 0B       		.uleb128 0xb
 1363 0065 3B       		.uleb128 0x3b
 1364 0066 0B       		.uleb128 0xb
 1365 0067 49       		.uleb128 0x49
 1366 0068 13       		.uleb128 0x13
 1367 0069 00       		.byte	0
 1368 006a 00       		.byte	0
 1369 006b 0A       		.uleb128 0xa
 1370 006c 13       		.uleb128 0x13
 1371 006d 01       		.byte	0x1
 1372 006e 0B       		.uleb128 0xb
 1373 006f 0B       		.uleb128 0xb
 1374 0070 3A       		.uleb128 0x3a
 1375 0071 0B       		.uleb128 0xb
ARM GAS  C:\Users\Laurent\AppData\Local\Temp\ccV7mqFv.s 			page 28


 1376 0072 3B       		.uleb128 0x3b
 1377 0073 0B       		.uleb128 0xb
 1378 0074 01       		.uleb128 0x1
 1379 0075 13       		.uleb128 0x13
 1380 0076 00       		.byte	0
 1381 0077 00       		.byte	0
 1382 0078 0B       		.uleb128 0xb
 1383 0079 0D       		.uleb128 0xd
 1384 007a 00       		.byte	0
 1385 007b 03       		.uleb128 0x3
 1386 007c 0E       		.uleb128 0xe
 1387 007d 3A       		.uleb128 0x3a
 1388 007e 0B       		.uleb128 0xb
 1389 007f 3B       		.uleb128 0x3b
 1390 0080 0B       		.uleb128 0xb
 1391 0081 49       		.uleb128 0x49
 1392 0082 13       		.uleb128 0x13
 1393 0083 38       		.uleb128 0x38
 1394 0084 0B       		.uleb128 0xb
 1395 0085 00       		.byte	0
 1396 0086 00       		.byte	0
 1397 0087 0C       		.uleb128 0xc
 1398 0088 0D       		.uleb128 0xd
 1399 0089 00       		.byte	0
 1400 008a 03       		.uleb128 0x3
 1401 008b 08       		.uleb128 0x8
 1402 008c 3A       		.uleb128 0x3a
 1403 008d 0B       		.uleb128 0xb
 1404 008e 3B       		.uleb128 0x3b
 1405 008f 0B       		.uleb128 0xb
 1406 0090 49       		.uleb128 0x49
 1407 0091 13       		.uleb128 0x13
 1408 0092 38       		.uleb128 0x38
 1409 0093 0B       		.uleb128 0xb
 1410 0094 00       		.byte	0
 1411 0095 00       		.byte	0
 1412 0096 0D       		.uleb128 0xd
 1413 0097 2E       		.uleb128 0x2e
 1414 0098 01       		.byte	0x1
 1415 0099 3F       		.uleb128 0x3f
 1416 009a 19       		.uleb128 0x19
 1417 009b 03       		.uleb128 0x3
 1418 009c 0E       		.uleb128 0xe
 1419 009d 3A       		.uleb128 0x3a
 1420 009e 0B       		.uleb128 0xb
 1421 009f 3B       		.uleb128 0x3b
 1422 00a0 0B       		.uleb128 0xb
 1423 00a1 49       		.uleb128 0x49
 1424 00a2 13       		.uleb128 0x13
 1425 00a3 11       		.uleb128 0x11
 1426 00a4 01       		.uleb128 0x1
 1427 00a5 12       		.uleb128 0x12
 1428 00a6 06       		.uleb128 0x6
 1429 00a7 40       		.uleb128 0x40
 1430 00a8 18       		.uleb128 0x18
 1431 00a9 9642     		.uleb128 0x2116
 1432 00ab 19       		.uleb128 0x19
ARM GAS  C:\Users\Laurent\AppData\Local\Temp\ccV7mqFv.s 			page 29


 1433 00ac 01       		.uleb128 0x1
 1434 00ad 13       		.uleb128 0x13
 1435 00ae 00       		.byte	0
 1436 00af 00       		.byte	0
 1437 00b0 0E       		.uleb128 0xe
 1438 00b1 34       		.uleb128 0x34
 1439 00b2 00       		.byte	0
 1440 00b3 03       		.uleb128 0x3
 1441 00b4 0E       		.uleb128 0xe
 1442 00b5 3A       		.uleb128 0x3a
 1443 00b6 0B       		.uleb128 0xb
 1444 00b7 3B       		.uleb128 0x3b
 1445 00b8 0B       		.uleb128 0xb
 1446 00b9 49       		.uleb128 0x49
 1447 00ba 13       		.uleb128 0x13
 1448 00bb 02       		.uleb128 0x2
 1449 00bc 18       		.uleb128 0x18
 1450 00bd 00       		.byte	0
 1451 00be 00       		.byte	0
 1452 00bf 0F       		.uleb128 0xf
 1453 00c0 01       		.uleb128 0x1
 1454 00c1 01       		.byte	0x1
 1455 00c2 49       		.uleb128 0x49
 1456 00c3 13       		.uleb128 0x13
 1457 00c4 01       		.uleb128 0x1
 1458 00c5 13       		.uleb128 0x13
 1459 00c6 00       		.byte	0
 1460 00c7 00       		.byte	0
 1461 00c8 10       		.uleb128 0x10
 1462 00c9 21       		.uleb128 0x21
 1463 00ca 00       		.byte	0
 1464 00cb 49       		.uleb128 0x49
 1465 00cc 13       		.uleb128 0x13
 1466 00cd 2F       		.uleb128 0x2f
 1467 00ce 0B       		.uleb128 0xb
 1468 00cf 00       		.byte	0
 1469 00d0 00       		.byte	0
 1470 00d1 11       		.uleb128 0x11
 1471 00d2 34       		.uleb128 0x34
 1472 00d3 00       		.byte	0
 1473 00d4 03       		.uleb128 0x3
 1474 00d5 08       		.uleb128 0x8
 1475 00d6 3A       		.uleb128 0x3a
 1476 00d7 0B       		.uleb128 0xb
 1477 00d8 3B       		.uleb128 0x3b
 1478 00d9 0B       		.uleb128 0xb
 1479 00da 49       		.uleb128 0x49
 1480 00db 13       		.uleb128 0x13
 1481 00dc 02       		.uleb128 0x2
 1482 00dd 18       		.uleb128 0x18
 1483 00de 00       		.byte	0
 1484 00df 00       		.byte	0
 1485 00e0 12       		.uleb128 0x12
 1486 00e1 34       		.uleb128 0x34
 1487 00e2 00       		.byte	0
 1488 00e3 03       		.uleb128 0x3
 1489 00e4 0E       		.uleb128 0xe
ARM GAS  C:\Users\Laurent\AppData\Local\Temp\ccV7mqFv.s 			page 30


 1490 00e5 3A       		.uleb128 0x3a
 1491 00e6 0B       		.uleb128 0xb
 1492 00e7 3B       		.uleb128 0x3b
 1493 00e8 0B       		.uleb128 0xb
 1494 00e9 49       		.uleb128 0x49
 1495 00ea 13       		.uleb128 0x13
 1496 00eb 3F       		.uleb128 0x3f
 1497 00ec 19       		.uleb128 0x19
 1498 00ed 3C       		.uleb128 0x3c
 1499 00ee 19       		.uleb128 0x19
 1500 00ef 00       		.byte	0
 1501 00f0 00       		.byte	0
 1502 00f1 00       		.byte	0
 1503              		.section	.debug_aranges,"",%progbits
 1504 0000 24000000 		.4byte	0x24
 1505 0004 0200     		.2byte	0x2
 1506 0006 00000000 		.4byte	.Ldebug_info0
 1507 000a 04       		.byte	0x4
 1508 000b 00       		.byte	0
 1509 000c 0000     		.2byte	0
 1510 000e 0000     		.2byte	0
 1511 0010 00000000 		.4byte	.LFB32
 1512 0014 F8000000 		.4byte	.LFE32-.LFB32
 1513 0018 00000000 		.4byte	.LFB33
 1514 001c 34040000 		.4byte	.LFE33-.LFB33
 1515 0020 00000000 		.4byte	0
 1516 0024 00000000 		.4byte	0
 1517              		.section	.debug_ranges,"",%progbits
 1518              	.Ldebug_ranges0:
 1519 0000 00000000 		.4byte	.LFB32
 1520 0004 F8000000 		.4byte	.LFE32
 1521 0008 00000000 		.4byte	.LFB33
 1522 000c 34040000 		.4byte	.LFE33
 1523 0010 00000000 		.4byte	0
 1524 0014 00000000 		.4byte	0
 1525              		.section	.debug_line,"",%progbits
 1526              	.Ldebug_line0:
 1527 0000 41010000 		.section	.debug_str,"MS",%progbits,1
 1527      02006100 
 1527      00000201 
 1527      FB0E0D00 
 1527      01010101 
 1528              	.LASF20:
 1529 0000 74727565 		.ascii	"true\000"
 1529      00
 1530              	.LASF33:
 1531 0005 4B69315F 		.ascii	"Ki1_den\000"
 1531      64656E00 
 1532              	.LASF23:
 1533 000d 6E625F62 		.ascii	"nb_boucles\000"
 1533      6F75636C 
 1533      657300
 1534              	.LASF24:
 1535 0018 4B70315F 		.ascii	"Kp1_num\000"
 1535      6E756D00 
 1536              	.LASF25:
 1537 0020 4B70315F 		.ascii	"Kp1_den\000"
ARM GAS  C:\Users\Laurent\AppData\Local\Temp\ccV7mqFv.s 			page 31


 1537      64656E00 
 1538              	.LASF21:
 1539 0028 626F6F6C 		.ascii	"bool\000"
 1539      00
 1540              	.LASF34:
 1541 002d 4B69325F 		.ascii	"Ki2_num\000"
 1541      6E756D00 
 1542              	.LASF22:
 1543 0035 54656368 		.ascii	"Tech\000"
 1543      00
 1544              	.LASF15:
 1545 003a 646F7562 		.ascii	"double\000"
 1545      6C6500
 1546              	.LASF38:
 1547 0041 636F6E73 		.ascii	"cons_finale\000"
 1547      5F66696E 
 1547      616C6500 
 1548              	.LASF35:
 1549 004d 4B69325F 		.ascii	"Ki2_den\000"
 1549      64656E00 
 1550              	.LASF14:
 1551 0055 666C6F61 		.ascii	"float\000"
 1551      7400
 1552              	.LASF28:
 1553 005b 4B64315F 		.ascii	"Kd1_num\000"
 1553      6E756D00 
 1554              	.LASF9:
 1555 0063 75696E74 		.ascii	"uint8\000"
 1555      3800
 1556              	.LASF1:
 1557 0069 756E7369 		.ascii	"unsigned char\000"
 1557      676E6564 
 1557      20636861 
 1557      7200
 1558              	.LASF45:
 1559 0077 746D7033 		.ascii	"tmp32\000"
 1559      3200
 1560              	.LASF46:
 1561 007d 64656275 		.ascii	"debut\000"
 1561      7400
 1562              	.LASF12:
 1563 0083 696E7431 		.ascii	"int16\000"
 1563      3600
 1564              	.LASF52:
 1565 0089 70617261 		.ascii	"param\000"
 1565      6D00
 1566              	.LASF13:
 1567 008f 696E7433 		.ascii	"int32\000"
 1567      3200
 1568              	.LASF29:
 1569 0095 4B64315F 		.ascii	"Kd1_den\000"
 1569      64656E00 
 1570              	.LASF44:
 1571 009d 72786461 		.ascii	"rxdata\000"
 1571      746100
 1572              	.LASF26:
 1573 00a4 4B70325F 		.ascii	"Kp2_num\000"
ARM GAS  C:\Users\Laurent\AppData\Local\Temp\ccV7mqFv.s 			page 32


 1573      6E756D00 
 1574              	.LASF53:
 1575 00ac 474E5520 		.ascii	"GNU C11 5.4.1 20160609 (release) [ARM/embedded-5-br"
 1575      43313120 
 1575      352E342E 
 1575      31203230 
 1575      31363036 
 1576 00df 616E6368 		.ascii	"anch revision 237715] -mcpu=cortex-m0 -mthumb -g -O"
 1576      20726576 
 1576      6973696F 
 1576      6E203233 
 1576      37373135 
 1577 0112 30202D66 		.ascii	"0 -ffunction-sections -ffat-lto-objects\000"
 1577      66756E63 
 1577      74696F6E 
 1577      2D736563 
 1577      74696F6E 
 1578              	.LASF41:
 1579 013a 636F6E66 		.ascii	"config\000"
 1579      696700
 1580              	.LASF5:
 1581 0141 6C6F6E67 		.ascii	"long unsigned int\000"
 1581      20756E73 
 1581      69676E65 
 1581      6420696E 
 1581      7400
 1582              	.LASF27:
 1583 0153 4B70325F 		.ascii	"Kp2_den\000"
 1583      64656E00 
 1584              	.LASF42:
 1585 015b 696E6465 		.ascii	"indexe\000"
 1585      786500
 1586              	.LASF10:
 1587 0162 75696E74 		.ascii	"uint16\000"
 1587      313600
 1588              	.LASF30:
 1589 0169 4B64325F 		.ascii	"Kd2_num\000"
 1589      6E756D00 
 1590              	.LASF11:
 1591 0171 75696E74 		.ascii	"uint32\000"
 1591      333200
 1592              	.LASF50:
 1593 0178 6D617263 		.ascii	"marche_bool\000"
 1593      68655F62 
 1593      6F6F6C00 
 1594              	.LASF8:
 1595 0184 756E7369 		.ascii	"unsigned int\000"
 1595      676E6564 
 1595      20696E74 
 1595      00
 1596              	.LASF7:
 1597 0191 6C6F6E67 		.ascii	"long long unsigned int\000"
 1597      206C6F6E 
 1597      6720756E 
 1597      7369676E 
 1597      65642069 
 1598              	.LASF31:
ARM GAS  C:\Users\Laurent\AppData\Local\Temp\ccV7mqFv.s 			page 33


 1599 01a8 4B64325F 		.ascii	"Kd2_den\000"
 1599      64656E00 
 1600              	.LASF39:
 1601 01b0 636F6E73 		.ascii	"cons_per_num\000"
 1601      5F706572 
 1601      5F6E756D 
 1601      00
 1602              	.LASF51:
 1603 01bd 74696D65 		.ascii	"time\000"
 1603      00
 1604              	.LASF47:
 1605 01c2 4765745F 		.ascii	"Get_trame_matlab\000"
 1605      7472616D 
 1605      655F6D61 
 1605      746C6162 
 1605      00
 1606              	.LASF19:
 1607 01d3 66616C73 		.ascii	"false\000"
 1607      6500
 1608              	.LASF18:
 1609 01d9 73697A65 		.ascii	"sizetype\000"
 1609      74797065 
 1609      00
 1610              	.LASF6:
 1611 01e2 6C6F6E67 		.ascii	"long long int\000"
 1611      206C6F6E 
 1611      6720696E 
 1611      7400
 1612              	.LASF54:
 1613 01f0 55415254 		.ascii	"UART_XG.c\000"
 1613      5F58472E 
 1613      6300
 1614              	.LASF16:
 1615 01fa 63686172 		.ascii	"char\000"
 1615      00
 1616              	.LASF40:
 1617 01ff 636F6E73 		.ascii	"cons_per_den\000"
 1617      5F706572 
 1617      5F64656E 
 1617      00
 1618              	.LASF2:
 1619 020c 73686F72 		.ascii	"short int\000"
 1619      7420696E 
 1619      7400
 1620              	.LASF49:
 1621 0216 43524363 		.ascii	"CRCcalc\000"
 1621      616C6300 
 1622              	.LASF36:
 1623 021e 74797065 		.ascii	"type_consigne\000"
 1623      5F636F6E 
 1623      7369676E 
 1623      6500
 1624              	.LASF48:
 1625 022c 4765745F 		.ascii	"Get_trame\000"
 1625      7472616D 
 1625      6500
 1626              	.LASF37:
ARM GAS  C:\Users\Laurent\AppData\Local\Temp\ccV7mqFv.s 			page 34


 1627 0236 636F6E73 		.ascii	"cons_initiale\000"
 1627      5F696E69 
 1627      7469616C 
 1627      6500
 1628              	.LASF4:
 1629 0244 6C6F6E67 		.ascii	"long int\000"
 1629      20696E74 
 1629      00
 1630              	.LASF55:
 1631 024d 433A5C55 		.ascii	"C:\\Users\\Laurent\\Documents\\PSoC Creator\\4.4\\V"
 1631      73657273 
 1631      5C4C6175 
 1631      72656E74 
 1631      5C446F63 
 1632 027a 484E3730 		.ascii	"HN7040AY\\Labo_Autom\\VNH7040-and.cydsn\000"
 1632      34304159 
 1632      5C4C6162 
 1632      6F5F4175 
 1632      746F6D5C 
 1633              	.LASF17:
 1634 02a0 6C6F6E67 		.ascii	"long double\000"
 1634      20646F75 
 1634      626C6500 
 1635              	.LASF0:
 1636 02ac 7369676E 		.ascii	"signed char\000"
 1636      65642063 
 1636      68617200 
 1637              	.LASF32:
 1638 02b8 4B69315F 		.ascii	"Ki1_num\000"
 1638      6E756D00 
 1639              	.LASF3:
 1640 02c0 73686F72 		.ascii	"short unsigned int\000"
 1640      7420756E 
 1640      7369676E 
 1640      65642069 
 1640      6E7400
 1641              	.LASF43:
 1642 02d3 746D7038 		.ascii	"tmp8\000"
 1642      00
 1643              		.ident	"GCC: (GNU Tools for ARM Embedded Processors) 5.4.1 20160609 (release) [ARM/embedded-5-bran
